******************************************************************************
                  TI ARM Linker PC v20.2.1                     
******************************************************************************
>> Linked Sun Jan 24 19:35:15 2021

OUTPUT FILE NAME:   <bluetoothProject.out>
ENTRY POINT SYMBOL: "_c_int00"  address: 0000fd85


MEMORY CONFIGURATION

         name            origin    length      used     unused   attr    fill
----------------------  --------  ---------  --------  --------  ----  --------
  FLASH                 00000000   00100000  000175ef  000e8a11  R  X
  SRAM                  20000000   00040000  0001b4d0  00024b30  RW X


SEGMENT ALLOCATION MAP

run origin  load origin   length   init length attrs members
----------  ----------- ---------- ----------- ----- -------
00000000    00000000    000175f8   000175f8    r-x
  00000000    00000000    0000003c   0000003c    r-- .resetVecs
  00000040    00000040    00014a0a   00014a0a    r-x .text
  00014a4c    00014a4c    00002741   00002741    r-- .const
  00017190    00017190    00000468   00000468    r-- .cinit
20000000    20000000    00000360   00000000    rw-
  20000000    20000000    00000360   00000000    rw- .vecs
20000380    20000380    0001b170   00000000    rw-
  20000380    20000380    00019f5c   00000000    rw- .bss
  2001a2dc    2001a2dc    00000a14   00000000    rw- .data
  2001acf0    2001acf0    00000800   00000000    rw- .stack


SECTION ALLOCATION MAP

 output                                  attributes/
section   page    origin      length       input sections
--------  ----  ----------  ----------   ----------------
.text      0    00000040    00014a0a     
                  00000040    00000c68     stk.aem4f : tcpin.oem4f (.text:TcpInput)
                  00000ca8    00000a4e     rtsv7M4_T_le_v4SPD16_eabi.lib : _printfi.c.obj (.text:__TI_printfi)
                  000016f6    00000002     hal_userled_stub.aem4f : llled.oem4f (.text:LED_TOGGLE)
                  000016f8    000008b8     stk.aem4f : tcpout.oem4f (.text:TcpOutput)
                  00001fb0    00000464     rtsv7M4_T_le_v4SPD16_eabi.lib : strftime.c.obj (.text:strftime)
                  00002414    00000004     stk.aem4f : bind.oem4f (.text:BindGetIF)
                  00002418    00000430     sysbios.aem4f : BIOS.obj (.text:ti_sysbios_family_arm_m3_Hwi_excDumpRegs__I)
                  00002848    00000408     stk.aem4f : ipout.oem4f (.text:IPTxPacket)
                  00002c50    00000384               : ipin.oem4f (.text:IPRxPacket)
                  00002fd4    0000034c     ti.targets.arm.rtsarm.aem4f : System.oem4f (.text:xdc_runtime_System_doPrint__I)
                  00003320    000002a0     rtsv7M4_T_le_v4SPD16_eabi.lib : mktime.c.obj (.text:__mktime32)
                  000035c0    00000284     stk.aem4f : sock.oem4f (.text:SockSet)
                  00003844    00000270     rtsv7M4_T_le_v4SPD16_eabi.lib : _printfi.c.obj (.text:_pconv_a)
                  00003ab4    0000024c     stk.aem4f : ipfrag.oem4f (.text:IPReasm)
                  00003d00    0000023c               : icmpin.oem4f (.text:ICMPInput)
                  00003f3c    00000238               : udp.oem4f (.text:UdpInput)
                  00004174    00000218     bluetooth.obj (.text:recvTimeStamptFromNTP)
                  0000438c    0000020c     drivers_tivaware.aem4f : UARTTiva.oem4f (.text:UARTTiva_open)
                  00004598    00000204     Boot.aem4f : Boot_sysctl.oem4f (.text:ti_catalog_arm_cortexm4_tiva_ce_Boot_sysCtlClockFreqSetI__I)
                  0000479c    000001f4     stk.aem4f : sock.oem4f (.text:SockRecv)
                  00004990    000001f4     sysbios.aem4f : BIOS.obj (.text:ti_sysbios_family_arm_m3_Hwi_excHandlerMax__I)
                  00004b84    000001d0     rtsv7M4_T_le_v4SPD16_eabi.lib : _printfi.c.obj (.text:_pconv_g)
                  00004d54    000001b8     drivers_tivaware.aem4f : EMACSnow.oem4f (.text:EMACSnow_NIMUInit)
                  00004f0c    000001b6     rtsv7M4_T_le_v4SPD16_eabi.lib : fd_add_t2.asm.obj (.text)
                  000050c2    00000002     stk.aem4f : nat.oem4f (.text:NatMsg)
                  000050c4    000001b0               : lliout.oem4f (.text:LLITxIpPacket)
                  00005274    000001ac               : lliin.oem4f (.text:LLIRxPacket)
                  00005420    0000019c     os.aem4f : mem.oem4f (.text:mmAlloc)
                  000055bc    0000019c     bluetooth.obj (.text:recvUART)
                  00005758    00000198     stk.aem4f : igmp.oem4f (.text:IGMPInput)
                  000058f0    00000190               : sock.oem4f (.text:SockNew)
                  00005a80    00000174     netctrl_min_ipv4.aem4f : netctrl.oem4f (.text:NC_NetStart)
                  00005bf4    00000004     stk.aem4f : bind.oem4f (.text:BindGetNext)
                  00005bf8    00000174     sysbios.aem4f : BIOS.obj (.text:ti_sysbios_family_arm_m3_Hwi_excBusFault__I)
                  00005d6c    00000170     stk.aem4f : rtc.oem4f (.text:RTCReport)
                  00005edc    0000016a               : sb.oem4f (.text:SBRead)
                  00006046    00000002     os.aem4f : task.oem4f (.text:_TaskInit)
                  00006048    00000165     bluetooth.obj (.text:sendData2Server)
                  000061ad    00000001     --HOLE-- [fill = 0]
                  000061ae    00000002     os.aem4f : task.oem4f (.text:_TaskShutdown)
                  000061b0    00000164     sysbios.aem4f : BIOS.obj (.text:ti_sysbios_family_arm_m3_Hwi_excUsageFault__I)
                  00006314    00000160     stk.aem4f : sock.oem4f (.text:SockConnect)
                  00006474    00000158     nettool_ipv4.aem4f : dhcpmain.oem4f (.text:DHCPOpen)
                  000065cc    00000150     drivers_tivaware.aem4f : GPIOTiva.oem4f (.text:GPIO_setConfig)
                  0000671c    00000004     os.aem4f : ossys.oem4f (.text:NDK_vsprintf)
                  00006720    00000148     sysbios.aem4f : BIOS.obj (.text:ti_sysbios_family_arm_m3_Hwi_excMemFault__I)
                  00006868    00000148                   : BIOS.obj (.text:ti_sysbios_knl_Event_pend__E)
                  000069b0    00000148                   : BIOS.obj (.text:ti_sysbios_knl_Task_Instance_finalize__E)
                  00006af8    00000144     stk.aem4f : bind.oem4f (.text:BindNew)
                  00006c3c    00000140               : tcp.oem4f (.text:TcpTimeoutCheck)
                  00006d7c    0000013c     nettool_ipv4.aem4f : config.oem4f (.text:CfgAddEntry)
                  00006eb8    0000013c     stk.aem4f : sockint.oem4f (.text:SockNotify)
                  00006ff4    0000013c               : sock.oem4f (.text:SockSend)
                  00007130    0000013c     rtsv7M4_T_le_v4SPD16_eabi.lib : _printfi.c.obj (.text:_pconv_e)
                  0000726c    00000136                                   : fd_div_t2.asm.obj (.text)
                  000073a2    00000002     hal_ser_stub.aem4f : llserstb.oem4f (.text:_llSerialServiceCheck)
                  000073a4    00000134     stk.aem4f : icmp.oem4f (.text:ICMPGenPacket)
                  000074d8    00000134     rtsv7M4_T_le_v4SPD16_eabi.lib : localtim.c.obj (.text:__localtime32)
                  0000760c    00000130     driverlib.lib : gpio.obj (.text:GPIOPadConfigSet)
                  0000773c    0000012c     EK_TM4C1294XL.obj (.text:EK_TM4C1294XL_initEMAC)
                  00007868    00000128     sysbios.aem4f : BIOS.obj (.text:ti_sysbios_knl_Semaphore_pend__E)
                  00007990    00000124     stk.aem4f : sockpcb.oem4f (.text:SockPcbResolve)
                  00007ab4    00000124               : udp.oem4f (.text:UdpOutput)
                  00007bd8    00000124     rtsv7M4_T_le_v4SPD16_eabi.lib : _printfi.c.obj (.text:fcvt)
                  00007cfc    00000124     bluetooth.obj (.text:netIPAddrHook)
                  00007e20    00000120     bluetooth_pem4f.oem4f (.text:ti_ndk_config_Global_stackThread)
                  00007f40    00000118     stk.aem4f : tcpout.oem4f (.text:TcpGenPacket)
                  00008058    00000118     ti.targets.arm.rtsarm.aem4f : Error.oem4f (.text:xdc_runtime_Error_policyDefault__E)
                  00008170    00000114     stk.aem4f : nimu.oem4f (.text:NIMUIoctl)
                  00008284    00000110               : node.oem4f (.text:NodeTreeFree)
                  00008394    00000110               : raw.oem4f (.text:RawInput)
                  000084a4    00000110     rtsv7M4_T_le_v4SPD16_eabi.lib : s_scalbn.c.obj (.text:scalbn)
                  000085b4    0000010c     stk.aem4f : rtable.oem4f (.text:RtFind)
                  000086c0    0000010a               : route.oem4f (.text:RtCreate)
                  000087ca    00000002     hal_ser_stub.aem4f : llserstb.oem4f (.text:_llSerialShutdown)
                  000087cc    00000108     drivers_tivaware.aem4f : EMACSnow.oem4f (.text:EMACSnow_emacStart)
                  000088d4    00000004     stk.aem4f : node.oem4f (.text:NodeSetRt)
                  000088d8    00000108     sysbios.aem4f : BIOS.obj (.text:ti_sysbios_family_arm_lm4_Timer_start__E)
                  000089e0    00000104     os.aem4f : task.oem4f (.text:llEnter)
                  00008ae4    00000102     nettool_ipv4.aem4f : dhcppkt.oem4f (.text:dhcpPacketProcess)
                  00008be6    00000102                        : inetaddr.oem4f (.text:inet_aton)
                  00008ce8    00000100     stk.aem4f : igmp.oem4f (.text:IGMPSendReply)
                  00008de8    00000100     ti.targets.arm.rtsarm.aem4f : Core-mem.oem4f (.text:xdc_runtime_Core_createObject__I)
                  00008ee8    000000fc     netctrl_min_ipv4.aem4f : netctrl.oem4f (.text:NetScheduler)
                  00008fe4    000000fc     rtsv7M4_T_le_v4SPD16_eabi.lib : fd_mul_t2.asm.obj (.text)
                  000090e0    000000f8     stk.aem4f : pipe.oem4f (.text:PipeRecv)
                  000091d8    000000f8     ti.targets.arm.rtsarm.aem4f : Startup.oem4f (.text:xdc_runtime_Startup_startMods__I)
                  000092d0    000000f8     bluetooth_pem4f.oem4f (.text:xdc_runtime_System_printfExtend__I)
                  000093c8    000000f4     os.aem4f : task.oem4f (.text:TaskGetEnv)
                  000094bc    000000f4     sysbios.aem4f : m3_Hwi_asm.obj (.text:ti_sysbios_family_arm_m3_Hwi_dispatch__I)
                  000095b0    000000f4                   : BIOS.obj (.text:ti_sysbios_knl_Task_Instance_init__E)
                  000096a4    000000f0     stk.aem4f : lliout.oem4f (.text:LLIGenArpPacket)
                  00009794    000000f0               : sock.oem4f (.text:SockClose)
                  00009884    000000e8     os.aem4f : task.oem4f (.text:TaskSetEnv)
                  0000996c    00000004     stk.aem4f : rawethsock_prot.oem4f (.text:RawEthSockPrAttach)
                  00009970    000000e4     sysbios.aem4f : BIOS.obj (.text:ti_sysbios_knl_Task_postInit__I)
                  00009a54    000000e0     stk.aem4f : tcptime.oem4f (.text:TcpTimeoutRexmt)
                  00009b34    000000dc               : sb.oem4f (.text:SBWrite)
                  00009c10    000000dc     nettool_ipv4.aem4f : dhcpsock.oem4f (.text:dhcpSocketOpen)
                  00009cec    000000dc                        : dhcpsm.oem4f (.text:dhcpState)
                  00009dc8    000000d8     stk.aem4f : node.oem4f (.text:NodeAdd)
                  00009ea0    000000d8               : tcpprot.oem4f (.text:TcpPrSetOption)
                  00009f78    000000d4     drivers_tivaware.aem4f : EMACSnow.oem4f (.text:EMACSnow_handleRx)
                  0000a04c    000000d4     stk.aem4f : sockpcb.oem4f (.text:SockPcbBind)
                  0000a120    000000d4     sysbios.aem4f : BIOS.obj (.text:ti_sysbios_heaps_HeapMem_alloc__E)
                  0000a1f4    000000d1     stk.aem4f : nimu.oem4f (.text:NIMUReceivePacket)
                  0000a2c5    00000001     --HOLE-- [fill = 0]
                  0000a2c6    00000002     hal_userled_stub.aem4f : llled.oem4f (.text:_llUserLedInit)
                  0000a2c8    000000cc     stk.aem4f : icmp.oem4f (.text:ICMPSendRtAdv)
                  0000a394    000000cc     nettool_ipv4.aem4f : dhcpbild.oem4f (.text:dhcpBuildHeader)
                  0000a460    000000cc                        : dhcpsm.oem4f (.text:dhcpIPAdd)
                  0000a52c    000000cc                        : dhcppkt.oem4f (.text:dhcpVerifyMessage)
                  0000a5f8    000000cc     ti.targets.arm.rtsarm.aem4f : Core-smem.oem4f (.text:xdc_runtime_Core_constructObject__I)
                  0000a6c4    000000c8     stk.aem4f : rawethsock.oem4f (.text:RawEthSockNew)
                  0000a78c    000000c8     netctrl_min_ipv4.aem4f : netsrv.oem4f (.text:SPIpNet)
                  0000a854    000000c4     drivers_tivaware.aem4f : EMACSnow.oem4f (.text:EMACSnow_InitDMADescriptors)
                  0000a918    000000c4     stk.aem4f : igmp.oem4f (.text:IGMPJoinHostGroup)
                  0000a9dc    000000c4     nettool_ipv4.aem4f : dhcpsm.oem4f (.text:StateBound)
                  0000aaa0    000000c0     sysbios.aem4f : BIOS.obj (.text:ti_sysbios_knl_Task_sleep__E)
                  0000ab60    000000bc     stk.aem4f : sockpcb.oem4f (.text:SockPcbFind)
                  0000ac1c    000000bc               : vlan.oem4f (.text:VLANDeinit)
                  0000acd8    000000bc     sysbios.aem4f : BIOS.obj (.text:ti_sysbios_family_arm_m3_Hwi_excDebugMon__I)
                  0000ad94    00000004     stk.aem4f : rawethsock_prot.oem4f (.text:RawEthSockPrDetach)
                  0000ad98    000000bc     sysbios.aem4f : BIOS.obj (.text:ti_sysbios_family_arm_m3_Hwi_excHardFault__I)
                  0000ae54    00000004     os.aem4f : semaphore.oem4f (.text:SemPend)
                  0000ae58    000000bc     sysbios.aem4f : BIOS.obj (.text:ti_sysbios_knl_Task_exit__E)
                  0000af14    000000b8     EK_TM4C1294XL.obj (.text:EK_TM4C1294XL_initGeneral)
                  0000afcc    000000b8     stk.aem4f : icmpin.oem4f (.text:ICMPRevSrcRoute)
                  0000b084    000000b8               : lli.oem4f (.text:_LLITimeoutCheck)
                  0000b13c    000000b4               : tcptime.oem4f (.text:TcpTimeoutKeep)
                  0000b1f0    000000b4     bluetooth.obj (.text:main)
                  0000b2a4    00000004     os.aem4f : semaphore.oem4f (.text:SemPost)
                  0000b2a8    000000b4     sysbios.aem4f : BIOS.obj (.text:ti_sysbios_knl_Task_checkStacks__E)
                  0000b35c    000000b1     rtsv7M4_T_le_v4SPD16_eabi.lib : _printfi.c.obj (.text:_ltostr)
                  0000b40d    00000001     --HOLE-- [fill = 0]
                  0000b40e    000000b0     stk.aem4f : rawethsock.oem4f (.text:RawEthSockSet)
                  0000b4be    00000002     hal_userled_stub.aem4f : llled.oem4f (.text:_llUserLedShutdown)
                  0000b4c0    000000ac     stk.aem4f : rtable.oem4f (.text:RtTimeoutCheck)
                  0000b56c    000000ac     drivers_tivaware.aem4f : UARTTiva.oem4f (.text:readTaskBlocking)
                  0000b618    000000ac     sysbios.aem4f : BIOS.obj (.text:ti_sysbios_family_arm_lm4_Timer_enableTiva__I)
                  0000b6c4    000000a8     stk.aem4f : sockint.oem4f (.text:SockCreatePacket)
                  0000b76c    00000004     os.aem4f : semaphore.oem4f (.text:SemReset)
                  0000b770    000000a4     sysbios.aem4f : BIOS.obj (.text:ti_sysbios_knl_Task_setPri__E)
                  0000b814    000000a4     bluetooth.obj (.text:updateTime)
                  0000b8b8    000000a0     stk.aem4f : ip.oem4f (.text:IPGetRoute)
                  0000b958    000000a0     auto_init.aem4f : auto_init.oem4f (.text)
                  0000b9f8    000000a0     ti.targets.arm.rtsarm.aem4f : Text.oem4f (.text:xdc_runtime_Text_putMod__E)
                  0000ba98    0000009e     stk.aem4f : nimu.oem4f (.text:NIMUAddEthernetHeader)
                  0000bb36    0000009e     nettool_ipv4.aem4f : dhcpbild.oem4f (.text:dhcpBuildRequest)
                  0000bbd4    0000009c     stk.aem4f : exec.oem4f (.text:ExecOpen)
                  0000bc70    0000009c     rtsv7M4_T_le_v4SPD16_eabi.lib : memcpy_t2.asm.obj (.text)
                  0000bd0c    0000009a     ti.targets.arm.rtsarm.aem4f : Text.oem4f (.text:xdc_runtime_Text_putSite__E)
                  0000bda6    00000002     rtsv7M4_T_le_v4SPD16_eabi.lib : _lock.c.obj (.text:_nop)
                  0000bda8    00000098     netctrl_min_ipv4.aem4f : netctrl.oem4f (.text:NC_SystemOpen)
                  0000be40    00000098                            : netsrv.oem4f (.text:ServiceScan)
                  0000bed8    00000098     drivers_tivaware.aem4f : UARTTiva.oem4f (.text:UARTTiva_readPolling)
                  0000bf70    00000098     Boot.aem4f : Boot.oem4f (.text:ti_catalog_arm_cortexm4_tiva_ce_Boot_sysCtlClockFreqSet__E)
                  0000c008    00000098     sysbios.aem4f : BIOS.obj (.text:ti_sysbios_knl_Task_schedule__I)
                  0000c0a0    00000096     rtsv7M4_T_le_v4SPD16_eabi.lib : ull_div_t2.asm.obj (.text)
                  0000c136    00000002     hal_ser_stub.aem4f : llserstb.oem4f (.text:llSerialService)
                  0000c138    00000094     nettool_ipv4.aem4f : config.oem4f (.text:CfgRemoveEntry)
                  0000c1cc    00000094     drivers_tivaware.aem4f : UARTTiva.oem4f (.text:UARTTiva_write)
                  0000c260    00000094     bluetooth.obj (.text:socketSend)
                  0000c2f4    00000004     os.aem4f : task.oem4f (.text:TaskSelf)
                  0000c2f8    00000094     sysbios.aem4f : BIOS.obj (.text:ti_sysbios_family_arm_m3_Hwi_Instance_init__E)
                  0000c38c    00000004     os.aem4f : task.oem4f (.text:TaskSetPri)
                  0000c390    00000094     sysbios.aem4f : BIOS.obj (.text:ti_sysbios_family_arm_m3_Hwi_initNVIC__E)
                  0000c424    00000090     nettool_ipv4.aem4f : config.oem4f (.text:CfgExecute)
                  0000c4b4    00000090     stk.aem4f : igmp.oem4f (.text:IGMPMsg)
                  0000c544    00000090     os.aem4f : mem.oem4f (.text:mmBulkAlloc)
                  0000c5d4    00000090     bluetooth.obj (.text:recvNTP)
                  0000c664    00000004     driverlib.lib : uart.obj (.text:UARTIntClear)
                  0000c668    00000090     sysbios.aem4f : BIOS.obj (.text:ti_sysbios_knl_Task_Module_startup__E)
                  0000c6f8    00000090                   : BIOS.obj (.text:ti_sysbios_knl_Task_startCore__E)
                  0000c788    0000008c     drivers_tivaware.aem4f : GPIOTiva.oem4f (.text:GPIO_init)
                  0000c814    0000008c     stk.aem4f : ip.oem4f (.text:IPMsg)
                  0000c8a0    0000008c     drivers_tivaware.aem4f : UARTTiva.oem4f (.text:UARTTiva_control)
                  0000c92c    0000008c     os.aem4f : mem.oem4f (.text:_mmInit)
                  0000c9b8    0000008c              : mem.oem4f (.text:mmInitPage)
                  0000ca44    0000008c     sysbios.aem4f : m3_TaskSupport_asm.obj (.text:ti_sysbios_family_arm_m3_TaskSupport_buildTaskStack)
                  0000cad0    0000008c                   : BIOS.obj (.text:ti_sysbios_knl_Event_post__E)
                  0000cb5c    0000008a     netctrl_min_ipv4.aem4f : netsrv.oem4f (.text:SPRoute)
                  0000cbe6    0000008a     drivers_tivaware.aem4f : UARTTiva.oem4f (.text:readIsrTextBlocking)
                  0000cc70    00000088     netctrl_min_ipv4.aem4f : netsrv.oem4f (.text:ServiceSpawn)
                  0000ccf8    00000088     stk.aem4f : sockpcb.oem4f (.text:SockPcbCtlError)
                  0000cd80    00000088     sysbios.aem4f : BIOS.obj (.text:ti_sysbios_knl_Mailbox_post__E)
                  0000ce08    00000087     bluetooth_pem4f.oem4f (.text:ti_ndk_config_Global_NetworkIPAddr)
                  0000ce8f    00000001     --HOLE-- [fill = 0]
                  0000ce90    00000086     nettool_ipv4.aem4f : dhcpsm.oem4f (.text:StateRequesting)
                  0000cf16    00000086     rtsv7M4_T_le_v4SPD16_eabi.lib : fd_cmp_t2.asm.obj (.text:__aeabi_cdcmple)
                  0000cf9c    00000086                                   : fd_cmp_t2.asm.obj (.text:__aeabi_cdrcmple)
                  0000d022    00000002                                   : div0.asm.obj (.text)
                  0000d024    00000084     nettool_ipv4.aem4f : config.oem4f (.text:CfgGetEntry)
                  0000d0a8    00000084     drivers_tivaware.aem4f : EMACSnow.oem4f (.text:EMACSnow_processPhyInterrupt)
                  0000d12c    00000084     stk.aem4f : tcpprot.oem4f (.text:TcpPrAttach)
                  0000d1b0    00000084     os.aem4f : mem.oem4f (.text:mmBulkFree)
                  0000d234    00000084              : mem.oem4f (.text:mmFree)
                  0000d2b8    00000084     sysbios.aem4f : BIOS.obj (.text:ti_sysbios_family_arm_m3_Hwi_postInit__I)
                  0000d33c    00000082     nettool_ipv4.aem4f : dhcpsm.oem4f (.text:StateRenewRebind)
                  0000d3be    00000082     drivers_tivaware.aem4f : UARTTiva.oem4f (.text:readIsrTextCallback)
                  0000d440    00000080                            : EMACSnow.oem4f (.text:EMACSnow_emacStop)
                  0000d4c0    00000080                            : EMACSnow.oem4f (.text:EMACSnow_processPendingTx)
                  0000d540    00000080     stk.aem4f : lli.oem4f (.text:LLINew)
                  0000d5c0    00000080     netctrl_min_ipv4.aem4f : netsrv.oem4f (.text:NS_BootTask)
                  0000d640    00000080     stk.aem4f : pbm.oem4f (.text:PBM_alloc)
                  0000d6c0    00000080               : raw.oem4f (.text:RawOutput)
                  0000d740    0000007e               : fileuser.oem4f (.text:fdClose)
                  0000d7be    00000002     bluetooth_pem4f.oem4f (.text:ti_ndk_config_Global_NetworkClose)
                  0000d7c0    0000007c     nettool_ipv4.aem4f : config.oem4f (.text:CfgGetNextEntry)
                  0000d83c    0000007c     drivers_tivaware.aem4f : EMACSnow.oem4f (.text:EMACSnow_hwiIntFxn)
                  0000d8b8    0000007c     stk.aem4f : igmp.oem4f (.text:IGMPDoMCast)
                  0000d934    0000007c               : igmp.oem4f (.text:IGMPJoin)
                  0000d9b0    0000007c               : socket.oem4f (.text:NDK_setsockopt)
                  0000da2c    0000007c               : nimu.oem4f (.text:NIMURegister)
                  0000daa8    0000007c               : pbm.oem4f (.text:PBM_free)
                  0000db24    0000007c     nettool_ipv4.aem4f : inetaddr.oem4f (.text:inet_pton)
                  0000dba0    0000007c     sysbios.aem4f : BIOS.obj (.text:ti_sysbios_heaps_HeapMem_free__E)
                  0000dc1c    0000007a     drivers_tivaware.aem4f : UARTTiva.oem4f (.text:readTaskCallback)
                  0000dc96    0000007a     rtsv7M4_T_le_v4SPD16_eabi.lib : memset_t2.asm.obj (.text)
                  0000dd10    00000078     driverlib.lib : emac.obj (.text:EMACInit)
                  0000dd88    00000078     stk.aem4f : socket.oem4f (.text:NDK_sendto)
                  0000de00    00000078               : tcptime.oem4f (.text:TcpXmitTimer)
                  0000de78    00000078               : fileuser.oem4f (.text:fdOpenSession)
                  0000def0    00000078     os.aem4f : task.oem4f (.text:llExit)
                  0000df68    00000076     stk.aem4f : pipe.oem4f (.text:PipeSend)
                  0000dfde    00000002     bluetooth_pem4f.oem4f (.text:ti_ndk_config_Global_NetworkOpen)
                  0000dfe0    00000075     stk.aem4f : tcptime.oem4f (.text:TcpTimeoutSackRexmt)
                  0000e055    00000001     --HOLE-- [fill = 0]
                  0000e056    00000002     bluetooth_pem4f.oem4f (.text:ti_sysbios_BIOS_nullFunc__I)
                  0000e058    00000074     stk.aem4f : igmp.oem4f (.text:IGMPLeaveHostGroup)
                  0000e0cc    00000074               : nimu.oem4f (.text:NIMUShutdown)
                  0000e140    00000074               : raweth.oem4f (.text:RawEthRxPacket)
                  0000e1b4    00000074               : sockpcb.oem4f (.text:SockPcbConnect)
                  0000e228    00000074     sysbios.aem4f : BIOS.obj (.text:ti_sysbios_knl_Mailbox_pend__E)
                  0000e29c    00000072     os.aem4f : semaphore.oem4f (.text:SemCreateBinary)
                  0000e30e    00000070     stk.aem4f : socket.oem4f (.text:NDK_send)
                  0000e37e    00000002     bluetooth_pem4f.oem4f (.text:xdc_runtime_Startup_reset__I)
                  0000e380    00000070     stk.aem4f : rtable.oem4f (.text:RtFlush)
                  0000e3f0    00000070     netctrl_min_ipv4.aem4f : netsrv.oem4f (.text:SPConfig)
                  0000e460    00000070     stk.aem4f : sock.oem4f (.text:SockShutdown)
                  0000e4d0    00000070     nettool_ipv4.aem4f : dhcptags.oem4f (.text:dhcpDecodeType)
                  0000e540    00000070     sysbios.aem4f : BIOS.obj (.text:ti_sysbios_knl_Clock_workFunc__E)
                  0000e5b0    0000006e     stk.aem4f : socket.oem4f (.text:NDK_recv)
                  0000e61e    00000002     --HOLE-- [fill = 0]
                  0000e620    0000006e               : rtable.oem4f (.text:RtWalkNext)
                  0000e68e    0000006e               : sockpcb.oem4f (.text:SockPcbFindRaw)
                  0000e6fc    0000006e     rtsv7M4_T_le_v4SPD16_eabi.lib : _printfi.c.obj (.text:_mcpy)
                  0000e76a    0000006e                                   : ll_div_t2.asm.obj (.text)
                  0000e7d8    0000006d     stk.aem4f : node.oem4f (.text:NodeNew)
                  0000e845    00000003     --HOLE-- [fill = 0]
                  0000e848    0000006d     ti.targets.arm.rtsarm.aem4f : System.oem4f (.text:xdc_runtime_System_formatNum__I)
                  0000e8b5    00000003     --HOLE-- [fill = 0]
                  0000e8b8    0000006c     os.aem4f : ossys.oem4f (.text:DbgPrintf)
                  0000e924    0000006c     stk.aem4f : node.oem4f (.text:NodeTreeNew)
                  0000e990    0000006c               : raweth.oem4f (.text:RawEthTxPacket)
                  0000e9fc    0000006c               : udp.oem4f (.text:UdpChecksum)
                  0000ea68    0000006c     bluetooth_pem4f.oem4f (.text:ti_ndk_config_ip_init)
                  0000ead4    00000004     hal_ser_stub.aem4f : llserstb.oem4f (.text:_llSerialInit)
                  0000ead8    0000006c     sysbios.aem4f : BIOS.obj (.text:ti_sysbios_knl_Swi_restoreHwi__E)
                  0000eb44    0000006c     drivers_tivaware.aem4f : UARTTiva.oem4f (.text:writeData)
                  0000ebb0    0000006c     ti.targets.arm.rtsarm.aem4f : Error.oem4f (.text:xdc_runtime_Error_print__E)
                  0000ec1c    0000006c                                 : Memory.oem4f (.text:xdc_runtime_Memory_alloc__E)
                  0000ec88    0000006a     stk.aem4f : tcpprot.oem4f (.text:TcpPrInherit)
                  0000ecf2    00000068               : socket.oem4f (.text:NDK_socket)
                  0000ed5a    00000002     --HOLE-- [fill = 0]
                  0000ed5c    00000068               : pbm.oem4f (.text:PBM_open)
                  0000edc4    00000068               : rtable.oem4f (.text:_RtNodeInsert)
                  0000ee2c    00000068     rtsv7M4_T_le_v4SPD16_eabi.lib : copy_decompress_lzss.c.obj (.text:decompress:lzss:__TI_decompress_lzss)
                  0000ee94    00000066     ti.targets.arm.rtsarm.aem4f : Core-mem.oem4f (.text:xdc_runtime_Core_deleteObject__I)
                  0000eefa    00000002     --HOLE-- [fill = 0]
                  0000eefc    00000064     nettool_ipv4.aem4f : config.oem4f (.text:CfgFree)
                  0000ef60    00000064     drivers_tivaware.aem4f : GPIOTiva.oem4f (.text:GPIO_hwiIntFxn)
                  0000efc4    00000064     stk.aem4f : pbm.oem4f (.text:PBMQ_enq)
                  0000f028    00000064               : sockint.oem4f (.text:SockSpawnAbort)
                  0000f08c    00000064     rtsv7M4_T_le_v4SPD16_eabi.lib : s_frexp.c.obj (.text:frexp)
                  0000f0f0    00000064     hal_timer_bios.aem4f : lltimer.oem4f (.text:llTimerTick)
                  0000f154    00000064     bluetooth_pem4f.oem4f (.text:ti_sysbios_family_arm_m3_Hwi_create)
                  0000f1b8    00000064     sysbios.aem4f : BIOS.obj (.text:ti_sysbios_family_arm_m3_Hwi_dispatchC__I)
                  0000f21c    00000004     rtsv7M4_T_le_v4SPD16_eabi.lib : exit.c.obj (.text:abort:abort)
                  0000f220    00000064     sysbios.aem4f : BIOS.obj (.text:ti_sysbios_knl_Semaphore_post__E)
                  0000f284    00000064     stk.aem4f : lliin.oem4f (.text:updateRtTable)
                  0000f2e8    00000062               : ipin.oem4f (.text:IPRouteIP)
                  0000f34a    00000002     --HOLE-- [fill = 0]
                  0000f34c    00000062               : sb.oem4f (.text:SBNew)
                  0000f3ae    00000002     --HOLE-- [fill = 0]
                  0000f3b0    00000060     nettool_ipv4.aem4f : config.oem4f (.text:CfgGetEntryCnt)
                  0000f410    00000060     stk.aem4f : file.oem4f (.text:FdWaitEvent)
                  0000f470    00000060               : nimu.oem4f (.text:NIMUUnregister)
                  0000f4d0    00000060               : node.oem4f (.text:NodeFind)
                  0000f530    00000060               : rtc.oem4f (.text:RTCMsg)
                  0000f590    00000060               : tcp.oem4f (.text:TcpChecksum)
                  0000f5f0    00000060     nettool_ipv4.aem4f : dhcptags.oem4f (.text:dhcpBuildOptions)
                  0000f650    00000060     bluetooth_pem4f.oem4f (.text:ti_ndk_config_Global_serviceReport)
                  0000f6b0    0000005e     stk.aem4f : route.oem4f (.text:RtRemove)
                  0000f70e    0000005e     nettool_ipv4.aem4f : dhcpsm.oem4f (.text:StateSelecting)
                  0000f76c    0000005e     stk.aem4f : vlan.oem4f (.text:VLANReceivePacket)
                  0000f7ca    0000005e     drivers_tivaware.aem4f : UARTTiva.oem4f (.text:readIsrBinaryBlocking)
                  0000f828    0000005c     nettool_ipv4.aem4f : config.oem4f (.text:CfgSetExecuteOrder)
                  0000f884    0000005c     stk.aem4f : nimu.oem4f (.text:NIMUIoctlSpecialCmd)
                  0000f8e0    0000005c     netctrl_min_ipv4.aem4f : netsrv.oem4f (.text:SPService)
                  0000f93c    0000005c     bluetooth_pem4f.oem4f (.text:ti_sysbios_knl_Swi_create)
                  0000f998    0000005c     sysbios.aem4f : BIOS.obj (.text:ti_sysbios_knl_Swi_run__I)
                  0000f9f4    00000004     stk.aem4f : listlib.oem4f (.text:list_get_head)
                  0000f9f8    0000005c     sysbios.aem4f : BIOS.obj (.text:ti_sysbios_knl_Swi_schedule__I)
                  0000fa54    0000005c     bluetooth_pem4f.oem4f (.text:ti_sysbios_knl_Task_create)
                  0000fab0    0000005c     sysbios.aem4f : BIOS.obj (.text:ti_sysbios_knl_Task_unblockI__E)
                  0000fb0c    0000005b     ti.targets.arm.rtsarm.aem4f : Text.oem4f (.text:xdc_runtime_Text_putLab__E)
                  0000fb67    00000001     --HOLE-- [fill = 0]
                  0000fb68    0000005a     stk.aem4f : route.oem4f (.text:RtRedirect)
                  0000fbc2    0000005a               : tcpprot.oem4f (.text:TcpValidateMetrics)
                  0000fc1c    0000005a     nettool_ipv4.aem4f : dhcpbild.oem4f (.text:dhcpBuildDecline)
                  0000fc76    0000005a     os.aem4f : mem.oem4f (.text:mmCopy)
                  0000fcd0    0000005a     bluetooth_pem4f.oem4f (.text:ti_ndk_config_tcp_init)
                  0000fd2a    00000002     --HOLE-- [fill = 0]
                  0000fd2c    00000058     stk.aem4f : bind.oem4f (.text:BindFree)
                  0000fd84    00000058     boot.aem4f : boot.oem4f (.text)
                  0000fddc    00000058     driverlib.lib : emac.obj (.text:EMACPHYConfigSet)
                  0000fe34    00000058     rtsv7M4_T_le_v4SPD16_eabi.lib : hostwrite.c.obj (.text:HOSTwrite)
                  0000fe8c    00000058     stk.aem4f : igmp.oem4f (.text:IGMPTimer)
                  0000fee4    00000058     os.aem4f : semaphore.oem4f (.text:SemCreate)
                  0000ff3c    00000058     bluetooth_pem4f.oem4f (.text:ti_sysbios_family_arm_m3_Hwi_construct)
                  0000ff94    00000058     sysbios.aem4f : m3_Hwi_asm_switch.obj (.text:ti_sysbios_family_arm_m3_Hwi_initStacks__E)
                  0000ffec    00000056     driverlib.lib : gpio.obj (.text:GPIOIntTypeSet)
                  00010042    00000056     rtsv7M4_T_le_v4SPD16_eabi.lib : _printfi.c.obj (.text:_pconv_f)
                  00010098    00000054     nettool_ipv4.aem4f : config.oem4f (.text:CfgEntryDeRef)
                  000100ec    00000054     stk.aem4f : igmp.oem4f (.text:IGMPLeave)
                  00010140    00000054               : rawethsock_pcb.oem4f (.text:RawEthSockPcbAttach)
                  00010194    00000054               : sockpcb.oem4f (.text:SockCleanPcb)
                  000101e8    00000054               : tcptime.oem4f (.text:TcpTimeoutPersist)
                  0001023c    00000054     rtsv7M4_T_le_v4SPD16_eabi.lib : _ltoa.c.obj (.text:__TI_ltoa)
                  00010290    00000054     drivers_tivaware.aem4f : UARTTiva.oem4f (.text:readIsrBinaryCallback)
                  000102e4    00000004     stk.aem4f : listlib.oem4f (.text:list_get_next)
                  000102e8    00000054     sysbios.aem4f : BIOS.obj (.text:ti_sysbios_family_arm_lm4_Timer_initDevice__I)
                  0001033c    00000004     bluetooth_pem4f.oem4f (.text:ti_sysbios_BIOS_RtsGateProxy_enter__E)
                  00010340    00000054     sysbios.aem4f : BIOS.obj (.text:ti_sysbios_knl_Swi_Instance_init__E)
                  00010394    00000054     ti.targets.arm.rtsarm.aem4f : Assert.oem4f (.text:xdc_runtime_Assert_raise__I)
                  000103e8    00000052     stk.aem4f : tcpprot.oem4f (.text:TcpPrDetach)
                  0001043a    00000052     rtsv7M4_T_le_v4SPD16_eabi.lib : _printfi.c.obj (.text:_ecpy)
                  0001048c    00000050     drivers_tivaware.aem4f : GPIOTiva.oem4f (.text:GPIO_setCallback)
                  000104dc    00000050                            : GPIOTiva.oem4f (.text:GPIO_write)
                  0001052c    00000050     stk.aem4f : socket.oem4f (.text:NDK_bind)
                  0001057c    00000050               : socket.oem4f (.text:NDK_connect)
                  000105cc    00000050               : route.oem4f (.text:RtNew)
                  0001061c    00000050     driverlib.lib : sysctl.obj (.text:SysCtlPeripheralReset)
                  0001066c    00000050     drivers_tivaware.aem4f : UARTTiva.oem4f (.text:UARTTiva_writeCancel)
                  000106bc    00000050     Boot.aem4f : Boot_sysctl.oem4f (.text:_SysCtlFrequencyGet)
                  0001070c    00000004     bluetooth_pem4f.oem4f (.text:ti_sysbios_BIOS_RtsGateProxy_leave__E)
                  00010710    00000050     sysbios.aem4f : BIOS.obj (.text:ti_sysbios_family_arm_m3_Hwi_Module_startup__E)
                  00010760    00000050     ti.targets.arm.rtsarm.aem4f : Startup.oem4f (.text:xdc_runtime_Startup_exec__E)
                  000107b0    00000050                                 : Text.oem4f (.text:xdc_runtime_Text_visitRope2__I)
                  00010800    0000004e     stk.aem4f : node.oem4f (.text:NodeDeRef)
                  0001084e    0000004e     nettool_ipv4.aem4f : config.oem4f (.text:_CfgEntryScan)
                  0001089c    0000004c                        : ipaddr.oem4f (.text:NtAddNetwork)
                  000108e8    0000004c     stk.aem4f : sockint.oem4f (.text:SockValidateRoute)
                  00010934    0000004c     drivers_tivaware.aem4f : UARTTiva.oem4f (.text:UARTTiva_close)
                  00010980    0000004c     rtsv7M4_T_le_v4SPD16_eabi.lib : atoi.c.obj (.text:atoi)
                  000109cc    0000004c                                   : cpy_tbl.c.obj (.text:copy_in)
                  00010a18    0000004c                                   : snprintf.c.obj (.text:snprintf)
                  00010a64    00000004     sysbios.aem4f : BIOS.obj (.text:ti_sysbios_family_arm_lm4_Timer_masterEnable__I)
                  00010a68    0000004c                   : BIOS.obj (.text:ti_sysbios_heaps_HeapMem_getStats__E)
                  00010ab4    00000004     bluetooth_pem4f.oem4f (.text:ti_sysbios_family_arm_m3_Hwi_delete)
                  00010ab8    0000004c     sysbios.aem4f : BIOS.obj (.text:ti_sysbios_knl_Swi_runLoop__I)
                  00010b04    00000004     bluetooth_pem4f.oem4f (.text:ti_sysbios_family_arm_m3_Hwi_destruct)
                  00010b08    0000004c     sysbios.aem4f : BIOS.obj (.text:ti_sysbios_knl_Task_allBlockedFunction__I)
                  00010b54    0000004a     netctrl_min_ipv4.aem4f : netsrv.oem4f (.text:ServiceKill)
                  00010b9e    0000004a     stk.aem4f : sock.oem4f (.text:SockDisconnect)
                  00010be8    0000004a               : timer.oem4f (.text:TimerNew)
                  00010c32    00000048     nettool_ipv4.aem4f : config.oem4f (.text:CfgNew)
                  00010c7a    00000002     --HOLE-- [fill = 0]
                  00010c7c    00000048     driverlib.lib : gpio.obj (.text:GPIOPinConfigure)
                  00010cc4    00000048     stk.aem4f : lli.oem4f (.text:LLIMsg)
                  00010d0c    00000048               : node.oem4f (.text:NodeWalk)
                  00010d54    00000048               : rawethsock_pcb.oem4f (.text:RawEthSockPcbDetach)
                  00010d9c    00000048               : sockpcb.oem4f (.text:SockPcbResolveChain)
                  00010de4    00000048               : tcpprot.oem4f (.text:TcpDrop)
                  00010e2c    00000048               : lli.oem4f (.text:_LLIExpListInsert)
                  00010e74    00000048               : rtable.oem4f (.text:_RtExpListInsert)
                  00010ebc    00000048               : file.oem4f (.text:fdint_lockfd)
                  00010f04    00000048     rtsv7M4_T_le_v4SPD16_eabi.lib : fd_toi_t2.asm.obj (.text)
                  00010f4c    00000004     bluetooth_pem4f.oem4f (.text:ti_sysbios_family_arm_m3_TaskSupport_Module__startupDone__S)
                  00010f50    00000048     sysbios.aem4f : BIOS.obj (.text:ti_sysbios_family_arm_lm4_Timer_enableTimers__I)
                  00010f98    00000048                   : BIOS.obj (.text:ti_sysbios_family_arm_m3_Hwi_disableInterrupt__E)
                  00010fe0    00000048                   : BIOS.obj (.text:ti_sysbios_family_arm_m3_Hwi_enableInterrupt__E)
                  00011028    00000048                   : BIOS.obj (.text:ti_sysbios_family_arm_m3_Hwi_excReserved__I)
                  00011070    00000048                   : BIOS.obj (.text:ti_sysbios_knl_Mailbox_Module_startup__E)
                  000110b8    00000048                   : BIOS.obj (.text:ti_sysbios_knl_Task_deleteTerminatedTasksFunc__I)
                  00011100    00000046     nettool_ipv4.aem4f : ipaddr.oem4f (.text:NtIfIdx2Ip)
                  00011146    00000046     stk.aem4f : rawethsock.oem4f (.text:RawEthSockSend)
                  0001118c    00000046     drivers_tivaware.aem4f : RingBuf.oem4f (.text:RingBuf_put)
                  000111d2    00000046     stk.aem4f : tcpprot.oem4f (.text:TcpPrCtlError)
                  00011218    00000046     os.aem4f : mem.oem4f (.text:mmZeroInit)
                  0001125e    00000046     ti.targets.arm.rtsarm.aem4f : Core-params.oem4f (.text:xdc_runtime_Core_assignParams__I)
                  000112a4    00000044     drivers_tivaware.aem4f : EMACSnow.oem4f (.text:EMACSnow_processTransmitted)
                  000112e8    00000044     stk.aem4f : icmp.oem4f (.text:ICMPChecksum)
                  0001132c    00000044               : ipfrag.oem4f (.text:IPReasmFree)
                  00011370    00000044               : lli.oem4f (.text:LLIGetValidTime)
                  000113b4    00000044               : rtable.oem4f (.text:RouteMsg)
                  000113f8    00000044               : rtable.oem4f (.text:RtWalkEnd)
                  0001143c    00000044               : sockpcb.oem4f (.text:SockPcbDetach)
                  00011480    00000044               : timer.oem4f (.text:TimerListInsert)
                  000114c4    00000044     hal_timer_bios.aem4f : lltimer.oem4f (.text:llTimerGetTime)
                  00011508    00000044     sysbios.aem4f : BIOS.obj (.text:ti_sysbios_family_arm_lm4_Timer_isrStub__E)
                  0001154c    00000004     bluetooth_pem4f.oem4f (.text:ti_sysbios_heaps_HeapMem_Module_GateProxy_enter__E)
                  00011550    00000044     sysbios.aem4f : BIOS.obj (.text:ti_sysbios_family_arm_m3_Hwi_getStackInfo__E)
                  00011594    00000004     bluetooth_pem4f.oem4f (.text:ti_sysbios_heaps_HeapMem_Module_GateProxy_leave__E)
                  00011598    00000044     sysbios.aem4f : BIOS.obj (.text:ti_sysbios_knl_Swi_post__E)
                  000115dc    00000044     ti.targets.arm.rtsarm.aem4f : Error.oem4f (.text:xdc_runtime_Error_setX__E)
                  00011620    00000044                                 : SysMin.oem4f (.text:xdc_runtime_SysMin_flush__E)
                  00011664    00000044                                 : Text.oem4f (.text:xdc_runtime_Text_xprintf__I)
                  000116a8    00000042     stk.aem4f : tcpprot.oem4f (.text:TcpPrSendOOB)
                  000116ea    00000042     driverlib.lib : uart.obj (.text:UARTConfigSetExpClk)
                  0001172c    00000042     drivers_tivaware.aem4f : UARTTiva.oem4f (.text:UARTTiva_hwiIntFxn)
                  0001176e    00000042                            : UARTTiva.oem4f (.text:UARTTiva_writePolling)
                  000117b0    00000042     stk.aem4f : fileuser.oem4f (.text:fdCloseSession)
                  000117f2    00000002     --HOLE-- [fill = 0]
                  000117f4    00000040               : lliin.oem4f (.text:LLIValidateRoute)
                  00011834    00000040               : pbm.oem4f (.text:PBM_copy)
                  00011874    00000040     drivers_tivaware.aem4f : RingBuf.oem4f (.text:RingBuf_get)
                  000118b4    00000040     stk.aem4f : sockpcb.oem4f (.text:SockPcbRtChange)
                  000118f4    00000040               : tcpprot.oem4f (.text:TcpPrSend)
                  00011934    00000040     drivers_tivaware.aem4f : UARTTiva.oem4f (.text:UARTTiva_read)
                  00011974    00000040     rtsv7M4_T_le_v4SPD16_eabi.lib : u_divt2.asm.obj (.text)
                  000119b4    00000040                                   : sprintf.c.obj (.text:sprintf)
                  000119f4    00000004     bluetooth_pem4f.oem4f (.text:ti_sysbios_knl_Clock_TimerProxy_getMaxTicks__E)
                  000119f8    00000040     sysbios.aem4f : BIOS.obj (.text:ti_sysbios_family_arm_lm4_Timer_Module_startup__E)
                  00011a38    00000040                   : BIOS.obj (.text:ti_sysbios_family_arm_lm4_Timer_startup__E)
                  00011a78    00000040                   : BIOS.obj (.text:ti_sysbios_heaps_HeapMem_Instance_init__E)
                  00011ab8    0000003e     nettool_ipv4.aem4f : dhcpmain.oem4f (.text:DHCPClose)
                  00011af6    00000002     --HOLE-- [fill = 0]
                  00011af8    0000003e     stk.aem4f : nimu.oem4f (.text:NIMUAllocateName)
                  00011b36    0000003e     os.aem4f : task.oem4f (.text:TaskCreate)
                  00011b74    0000003e     stk.aem4f : tcpprot.oem4f (.text:TcpPrDisconnect)
                  00011bb2    0000003e     rtsv7M4_T_le_v4SPD16_eabi.lib : _printfi.c.obj (.text:_fcpy)
                  00011bf0    0000003e     stk.aem4f : file.oem4f (.text:fdint_unlockfd)
                  00011c2e    0000003c     nettool_ipv4.aem4f : config.oem4f (.text:CfgEntryGetData)
                  00011c6a    0000003c     driverlib.lib : emac.obj (.text:EMACIntDisable)
                  00011ca6    0000003c     stk.aem4f : node.oem4f (.text:NodeUpdatePL)
                  00011ce2    00000002     --HOLE-- [fill = 0]
                  00011ce4    0000003c               : rtable.oem4f (.text:RtWalkBegin)
                  00011d20    0000003c               : tcpprot.oem4f (.text:TcpPrConnect)
                  00011d5c    0000003c               : tcptime.oem4f (.text:TcpSetPersist)
                  00011d98    0000003c               : rtc.oem4f (.text:_RTCSendRtAdv)
                  00011dd4    0000003c               : rtable.oem4f (.text:_RtNodeRemove)
                  00011e10    0000003c     hal_timer_bios.aem4f : lltimer.oem4f (.text:_llTimerInit)
                  00011e4c    00000004     bluetooth_pem4f.oem4f (.text:ti_sysbios_knl_Clock_destruct)
                  00011e50    0000003c     sysbios.aem4f : BIOS.obj (.text:ti_sysbios_family_arm_m3_Hwi_excSvCall__I)
                  00011e8c    00000004     bluetooth_pem4f.oem4f (.text:ti_sysbios_knl_Queue_destruct)
                  00011e90    0000003c     sysbios.aem4f : BIOS.obj (.text:ti_sysbios_heaps_HeapMem_init__I)
                  00011ecc    00000004     bluetooth_pem4f.oem4f (.text:ti_sysbios_knl_Semaphore_delete)
                  00011ed0    0000003c     sysbios.aem4f : BIOS.obj (.text:ti_sysbios_knl_Clock_Instance_init__E)
                  00011f0c    00000004     bluetooth_pem4f.oem4f (.text:ti_sysbios_knl_Semaphore_destruct)
                  00011f10    0000003c     sysbios.aem4f : BIOS.obj (.text:ti_sysbios_knl_Swi_restore__E)
                  00011f4c    0000003a     driverlib.lib : emac.obj (.text:EMACIntEnable)
                  00011f86    00000002     --HOLE-- [fill = 0]
                  00011f88    00000039     bluetooth.obj (.text:printError)
                  00011fc1    00000003     --HOLE-- [fill = 0]
                  00011fc4    00000038     driverlib.lib : emac.obj (.text:EMACConfigGet)
                  00011ffc    00000038     stk.aem4f : ipfrag.oem4f (.text:IPReasmTimeout)
                  00012034    00000038               : node.oem4f (.text:NodeGetRt)
                  0001206c    00000038     driverlib.lib : sysctl.obj (.text:SysCtlPeripheralReady)
                  000120a4    00000038     stk.aem4f : tcpprot.oem4f (.text:TcpClose)
                  000120dc    00000038               : timer.oem4f (.text:TimerHSTick)
                  00012114    00000038     drivers_tivaware.aem4f : UART.oem4f (.text:UART_init)
                  0001214c    00000038     rtsv7M4_T_le_v4SPD16_eabi.lib : trgmsg.c.obj (.text:__TI_writemsg)
                  00012184    00000038     nettool_ipv4.aem4f : dhcpbild.oem4f (.text:dhcpBuildDiscover)
                  000121bc    00000038                        : dhcptags.oem4f (.text:dhcpOptionsClear)
                  000121f4    00000038     stk.aem4f : file.oem4f (.text:fdint_waitevent)
                  0001222c    00000004     bluetooth_pem4f.oem4f (.text:ti_sysbios_knl_Swi_delete)
                  00012230    00000038     sysbios.aem4f : BIOS.obj (.text:ti_sysbios_family_arm_m3_Hwi_excNoIsr__I)
                  00012268    00000038     bluetooth_pem4f.oem4f (.text:ti_sysbios_knl_Clock_create)
                  000122a0    00000038     ti.targets.arm.rtsarm.aem4f : SysMin.oem4f (.text:xdc_runtime_SysMin_putch__E)
                  000122d8    00000038                                 : System.oem4f (.text:xdc_runtime_System_atexit__E)
                  00012310    00000036     stk.aem4f : ip.oem4f (.text:IPChecksum)
                  00012346    00000036     drivers_tivaware.aem4f : UARTTiva.oem4f (.text:UARTTiva_readCancel)
                  0001237c    00000034     nettool_ipv4.aem4f : config.oem4f (.text:CfgSetService)
                  000123b0    00000034     driverlib.lib : emac.obj (.text:EMACConfigSet)
                  000123e4    00000034                   : emac.obj (.text:EMACIntClear)
                  00012418    00000034     drivers_tivaware.aem4f : EMACSnow.oem4f (.text:EMACSnow_emacPoll)
                  0001244c    00000034                            : EMACSnow.oem4f (.text:EMACSnow_isLinkUp)
                  00012480    00000034                            : EMAC.oem4f (.text:EMAC_init)
                  000124b4    00000034     stk.aem4f : exec.oem4f (.text:ExecClose)
                  000124e8    00000034               : nimu.oem4f (.text:NIMUFindByName)
                  0001251c    00000034               : nimu.oem4f (.text:NIMUInit)
                  00012550    00000034               : rawethsock.oem4f (.text:RawEthSockNotify)
                  00012584    00000034               : sockprot.oem4f (.text:SockPrCtlError)
                  000125b8    00000034     driverlib.lib : sysctl.obj (.text:SysCtlPeripheralEnable)
                  000125ec    00000034     rtsv7M4_T_le_v4SPD16_eabi.lib : trgmsg.c.obj (.text:__TI_readmsg)
                  00012620    00000034     os.aem4f : mem.oem4f (.text:mmUnInitPage)
                  00012654    00000004     bluetooth_pem4f.oem4f (.text:ti_sysbios_knl_Task_delete)
                  00012658    00000034     sysbios.aem4f : BIOS.obj (.text:ti_sysbios_family_arm_m3_Hwi_Instance_finalize__E)
                  0001268c    00000004     ti.targets.arm.rtsarm.aem4f : Error.oem4f (.text:xdc_runtime_Error_getMsg__E)
                  00012690    00000034     sysbios.aem4f : BIOS.obj (.text:ti_sysbios_family_arm_m3_Hwi_excNmi__I)
                  000126c4    00000004     ti.targets.arm.rtsarm.aem4f : Error.oem4f (.text:xdc_runtime_Error_getSite__E)
                  000126c8    00000034     sysbios.aem4f : BIOS.obj (.text:ti_sysbios_hal_Hwi_checkStack)
                  000126fc    00000034     bluetooth_pem4f.oem4f (.text:ti_sysbios_knl_Clock_construct)
                  00012730    00000034     bluetooth_pem4f.oem4f (.text:ti_sysbios_knl_Semaphore_create)
                  00012764    00000034     ti.targets.arm.rtsarm.aem4f : Core-label.oem4f (.text:xdc_runtime_Core_assignLabel__I)
                  00012798    00000033                                 : Text.oem4f (.text:xdc_runtime_Text_printVisFxn__I)
                  000127cb    00000001     --HOLE-- [fill = 0]
                  000127cc    00000032     nettool_ipv4.aem4f : config.oem4f (.text:CfgGetImmediate)
                  000127fe    00000032     stk.aem4f : route.oem4f (.text:RtDeRef)
                  00012830    00000032               : route.oem4f (.text:RtSetFailure)
                  00012862    00000032               : sb.oem4f (.text:SBFlush)
                  00012894    00000032               : sb.oem4f (.text:SBSetMax)
                  000128c6    00000032               : sock.oem4f (.text:SockIntAbort)
                  000128f8    00000032     nettool_ipv4.aem4f : config.oem4f (.text:_CfgAcquire)
                  0001292a    00000032                        : dhcpsm.oem4f (.text:dhcpIPRemove)
                  0001295c    00000004     bluetooth_pem4f.oem4f (.text:xdc_runtime_System_Module_GateProxy_enter__E)
                  00012960    00000032     sysbios.aem4f : BIOS.obj (.text:ti_sysbios_hal_Hwi_initStack)
                  00012992    00000006     driverlib.lib : emac.obj (.text:EMACRxDMADescriptorListSet)
                  00012998    00000032     sysbios.aem4f : BIOS.obj (.text:ti_sysbios_knl_Event_pendTimeout__I)
                  000129ca    00000006     driverlib.lib : emac.obj (.text:EMACTxDMADescriptorListSet)
                  000129d0    00000032     sysbios.aem4f : BIOS.obj (.text:ti_sysbios_knl_Semaphore_pendTimeout__I)
                  00012a02    00000030     driverlib.lib : emac.obj (.text:EMACAddrSet)
                  00012a32    00000002     --HOLE-- [fill = 0]
                  00012a34    00000030     drivers_tivaware.aem4f : EMACSnow.oem4f (.text:EMACSnow_handlePackets)
                  00012a64    00000030     netctrl_min_ipv4.aem4f : netsrv.oem4f (.text:NS_PreBoot)
                  00012a94    00000030     stk.aem4f : sock.oem4f (.text:SockBind)
                  00012ac4    00000030     drivers_tivaware.aem4f : UART.oem4f (.text:UART_open)
                  00012af4    00000030     rtsv7M4_T_le_v4SPD16_eabi.lib : snprintf.c.obj (.text:_outs)
                  00012b24    00000030     nettool_ipv4.aem4f : dhcpsock.oem4f (.text:dhcpPacketSend)
                  00012b54    00000030     stk.aem4f : listlib.oem4f (.text:list_remove_node)
                  00012b84    00000030     bluetooth_pem4f.oem4f (.text:ti_sysbios_BIOS_atExitFunc__I)
                  00012bb4    00000004     bluetooth_pem4f.oem4f (.text:xdc_runtime_System_Module_GateProxy_leave__E)
                  00012bb8    00000030     sysbios.aem4f : BIOS.obj (.text:ti_sysbios_family_arm_lm4_Timer_stop__E)
                  00012be8    00000030                   : BIOS.obj (.text:ti_sysbios_family_arm_m3_TaskSupport_start__E)
                  00012c18    00000030     bluetooth_pem4f.oem4f (.text:ti_sysbios_gates_GateHwi_Object__create__S)
                  00012c48    00000030     bluetooth_pem4f.oem4f (.text:ti_sysbios_gates_GateMutex_Object__create__S)
                  00012c78    00000030     sysbios.aem4f : BIOS.obj (.text:ti_sysbios_gates_GateMutex_enter__E)
                  00012ca8    00000030     bluetooth_pem4f.oem4f (.text:ti_sysbios_heaps_HeapMem_Object__create__S)
                  00012cd8    00000030     sysbios.aem4f : BIOS.obj (.text:ti_sysbios_knl_Mailbox_postInit__I)
                  00012d08    00000030     bluetooth_pem4f.oem4f (.text:ti_sysbios_knl_Semaphore_construct)
                  00012d38    00000030     sysbios.aem4f : BIOS.obj (.text:ti_sysbios_knl_Task_processVitalTaskFlag__I)
                  00012d68    00000030     ti.targets.arm.rtsarm.aem4f : SysMin.oem4f (.text:xdc_runtime_SysMin_abort__E)
                  00012d98    00000030                                 : System.oem4f (.text:xdc_runtime_System_processAtExit__E)
                  00012dc8    0000002e     stk.aem4f : sb.oem4f (.text:SBFree)
                  00012df6    0000002e     rtsv7M4_T_le_v4SPD16_eabi.lib : i_tofd_t2.asm.obj (.text)
                  00012e24    0000002c     EK_TM4C1294XL.obj (.text:EK_TM4C1294XL_initUART)
                  00012e50    0000002c     driverlib.lib : emac.obj (.text:EMACIntStatus)
                  00012e7c    0000002c     stk.aem4f : file.oem4f (.text:FdSignalEvent)
                  00012ea8    0000002c               : igmp.oem4f (.text:IGMPTestGroup)
                  00012ed4    0000002c     os.aem4f : task.oem4f (.text:NDK_hookCreate)
                  00012f00    0000002c     stk.aem4f : nimu.oem4f (.text:NIMUAllocateIndex)
                  00012f2c    0000002c               : nimu.oem4f (.text:NIMUPacketServiceCheck)
                  00012f58    0000002c               : pipe.oem4f (.text:PipeClose)
                  00012f84    0000002c               : sockpcb.oem4f (.text:SockPcbAttach)
                  00012fb0    0000002c               : lli.oem4f (.text:_LLIExpListRemove)
                  00012fdc    0000002c               : lli.oem4f (.text:_LLITimeoutFlush)
                  00013008    0000002c               : rtable.oem4f (.text:_RtExpListRemove)
                  00013034    0000002c     bluetooth_pem4f.oem4f (.text:ti_sysbios_knl_Clock_doTick__I)
                  00013060    0000002c     bluetooth_pem4f.oem4f (.text:ti_sysbios_knl_Queue_construct)
                  0001308c    00000004     ti.targets.arm.rtsarm.aem4f : System.oem4f (.text:xdc_runtime_System_aprintf_va__F)
                  00013090    0000002c     sysbios.aem4f : BIOS.obj (.text:ti_sysbios_knl_Task_restore__E)
                  000130bc    0000002c     ti.targets.arm.rtsarm.aem4f : Text.oem4f (.text:xdc_runtime_Text_cordText__E)
                  000130e8    0000002a     driverlib.lib : gpio.obj (.text:GPIODirModeSet)
                  00013112    0000002a     stk.aem4f : pbm.oem4f (.text:PBMQ_deq)
                  0001313c    0000002a     netctrl_min_ipv4.aem4f : netsrv.oem4f (.text:ServiceCallback)
                  00013166    0000002a     nettool_ipv4.aem4f : config.oem4f (.text:_CfgRelease)
                  00013190    0000002a     ti.targets.arm.rtsarm.aem4f : System.oem4f (.text:xdc_runtime_System_putchar__I)
                  000131ba    00000002     --HOLE-- [fill = 0]
                  000131bc    00000028     stk.aem4f : bind.oem4f (.text:BindFindByNet)
                  000131e4    00000028               : lli.oem4f (.text:LLIFree)
                  0001320c    00000028     netctrl_min_ipv4.aem4f : netctrl.oem4f (.text:NC_SystemClose)
                  00013234    00000028     stk.aem4f : nimu.oem4f (.text:NIMUCreatePacket)
                  0001325c    00000028               : nimu.oem4f (.text:NIMUPacketService)
                  00013284    00000028               : tcpin.oem4f (.text:TcpEnterTimeWait)
                  000132ac    00000028               : timer.oem4f (.text:TimerListRemove)
                  000132d4    00000028               : vlan.oem4f (.text:VLANFindSourceInterface)
                  000132fc    00000028               : vlan.oem4f (.text:VLANInit)
                  00013324    00000028     nettool_ipv4.aem4f : dhcpsock.oem4f (.text:dhcpPacketReceive)
                  0001334c    00000028     drivers_tivaware.aem4f : EMACSnow.oem4f (.text:signalLinkChange)
                  00013374    00000004     ti.targets.arm.rtsarm.aem4f : System.oem4f (.text:xdc_runtime_System_printf_va__F)
                  00013378    00000028     sysbios.aem4f : BIOS.obj (.text:ti_sysbios_knl_Clock_addI__E)
                  000133a0    00000028                   : BIOS.obj (.text:ti_sysbios_knl_Swi_Module_startup__E)
                  000133c8    00000026     nettool_ipv4.aem4f : config.oem4f (.text:CfgEntryInfo)
                  000133ee    00000026     driverlib.lib : emac.obj (.text:EMACPHYRead)
                  00013414    00000026                   : emac.obj (.text:EMACPHYWrite)
                  0001343a    00000026     stk.aem4f : rawethsock.oem4f (.text:RawEthSockClose)
                  00013460    00000026     sysbios.aem4f : m3_Hwi_asm.obj (.text:ti_sysbios_family_arm_m3_Hwi_pendSV__I)
                  00013486    00000026     ti.targets.arm.rtsarm.aem4f : System.oem4f (.text:xdc_runtime_System_avprintf__E)
                  000134ac    00000024     stk.aem4f : bind.oem4f (.text:BindFindByHost)
                  000134d0    00000024               : bind.oem4f (.text:BindGetIFByDBCast)
                  000134f4    00000024     drivers_tivaware.aem4f : EMACSnow.oem4f (.text:EMACSnow_pkt_service)
                  00013518    00000024                            : EMACSnow.oem4f (.text:EMACSnow_primeRx)
                  0001353c    00000024     stk.aem4f : exec.oem4f (.text:ExecTimer)
                  00013560    00000024               : nimu.oem4f (.text:NIMUFindByIndex)
                  00013584    00000024               : rtc.oem4f (.text:RTCAddHook)
                  000135a8    00000024               : rawethsock_pcb.oem4f (.text:RawEthSockPcbFind)
                  000135cc    00000024               : route.oem4f (.text:RtFree)
                  000135f0    00000024               : route.oem4f (.text:RtSetTimeout)
                  00013614    00000024               : sockpcb.oem4f (.text:SockPcbCleanup)
                  00013638    00000024               : tcptime.oem4f (.text:TcpTimeoutWait2)
                  0001365c    00000024     nettool_ipv4.aem4f : config.oem4f (.text:_CfgEntryProcess)
                  00013680    00000024     bluetooth_pem4f.oem4f (.text:ti_sysbios_BIOS_errorRaiseHook__I)
                  000136a4    00000024     bluetooth_pem4f.oem4f (.text:ti_sysbios_BIOS_registerRTSLock__I)
                  000136c8    00000024     bluetooth_pem4f.oem4f (.text:ti_sysbios_BIOS_removeRTSLock__I)
                  000136ec    00000024     bluetooth_pem4f.oem4f (.text:ti_sysbios_BIOS_startFunc__I)
                  00013710    00000024     bluetooth_pem4f.oem4f (.text:ti_sysbios_gates_GateMutex_Object__delete__S)
                  00013734    00000004     --HOLE-- [fill = 0]
                  00013738    00000024     sysbios.aem4f : BIOS.obj (.text:ti_sysbios_knl_Clock_Module_startup__E)
                  0001375c    00000004     --HOLE-- [fill = 0]
                  00013760    00000024                   : BIOS.obj (.text:ti_sysbios_knl_Clock_start__E)
                  00013784    00000004     --HOLE-- [fill = 0]
                  00013788    00000024                   : BIOS.obj (.text:ti_sysbios_knl_Semaphore_Instance_init__E)
                  000137ac    00000024     bluetooth_pem4f.oem4f (.text:ti_sysbios_knl_Semaphore_Object__delete__S)
                  000137d0    00000024     sysbios.aem4f : BIOS.obj (.text:ti_sysbios_knl_Task_restoreHwi__E)
                  000137f4    00000024     ti.targets.arm.rtsarm.aem4f : System.oem4f (.text:xdc_runtime_System_vprintf__E)
                  00013818    00000022     nettool_ipv4.aem4f : config.oem4f (.text:CfgEntryRef)
                  0001383a    00000022     stk.aem4f : vlan.oem4f (.text:VLANFindNode)
                  0001385c    00000004     --HOLE-- [fill = 0]
                  00013860    00000022     sysbios.aem4f : BIOS.obj (.text:ti_sysbios_family_arm_lm4_Timer_write__I)
                  00013882    00000022     bluetooth_pem4f.oem4f (.text:xdc_runtime_SysMin_output__I)
                  000138a4    00000020     netctrl_min_ipv4.aem4f : netctrl.oem4f (.text:NC_BootComplete)
                  000138c4    00000020     stk.aem4f : nimu.oem4f (.text:NIMUGetNumOfObject)
                  000138e4    00000020               : rtc.oem4f (.text:RTCRemoveHook)
                  00013904    00000020               : tcp.oem4f (.text:TcpTimeoutRemove)
                  00013924    00000020     Boot.aem4f : Boot_sysctl.oem4f (.text:_SysCtlMemTimingGet)
                  00013944    00000020     bluetooth_pem4f.oem4f (.text:ti_sysbios_BIOS_rtsLock__I)
                  00013964    00000004     --HOLE-- [fill = 0]
                  00013968    00000020     sysbios.aem4f : BIOS.obj (.text:ti_sysbios_family_arm_lm4_Timer_postInit__I)
                  00013988    00000020     bluetooth_pem4f.oem4f (.text:ti_sysbios_family_arm_m3_Hwi_Object__delete__S)
                  000139a8    00000020     sysbios.aem4f : m3_Hwi_asm.obj (.text:ti_sysbios_family_arm_m3_Hwi_excHandlerAsm__I)
                  000139c8    00000020                   : BIOS.obj (.text:ti_sysbios_family_arm_m3_Hwi_excHandler__I)
                  000139e8    00000020     bluetooth_pem4f.oem4f (.text:ti_sysbios_gates_GateHwi_Object__delete__S)
                  00013a08    00000020     bluetooth_pem4f.oem4f (.text:ti_sysbios_heaps_HeapMem_Object__delete__S)
                  00013a28    00000020     bluetooth_pem4f.oem4f (.text:ti_sysbios_knl_Clock_Object__destruct__S)
                  00013a48    00000020     sysbios.aem4f : BIOS.obj (.text:ti_sysbios_knl_Idle_run__E)
                  00013a68    00000020     bluetooth_pem4f.oem4f (.text:ti_sysbios_knl_Semaphore_Object__destruct__S)
                  00013a88    00000020     bluetooth_pem4f.oem4f (.text:ti_sysbios_knl_Swi_Object__delete__S)
                  00013aa8    00000020     bluetooth_pem4f.oem4f (.text:ti_sysbios_knl_Task_Object__delete__S)
                  00013ac8    00000020     ti.targets.arm.rtsarm.aem4f : Registry.oem4f (.text:xdc_runtime_Registry_findById__E)
                  00013ae8    00000020                                 : SysMin.oem4f (.text:xdc_runtime_SysMin_Module_startup__E)
                  00013b08    0000001e     stk.aem4f : listlib.oem4f (.text:list_remove)
                  00013b26    0000001e     bluetooth.obj (.text:recv)
                  00013b44    0000001e     bluetooth.obj (.text:send)
                  00013b62    0000001e     rtsv7M4_T_le_v4SPD16_eabi.lib : strcat.c.obj (.text:strcat)
                  00013b80    0000001e     sysbios.aem4f : m3_Hwi_asm_switch.obj (.text:ti_sysbios_family_xxx_Hwi_switchAndRunFunc)
                  00013b9e    00000002     --HOLE-- [fill = 0]
                  00013ba0    0000001c     stk.aem4f : bind.oem4f (.text:BindFindByIF)
                  00013bbc    0000001c               : exec.oem4f (.text:ExecBroadcast)
                  00013bd8    0000001c     os.aem4f : ossys.oem4f (.text:NDK_sprintf)
                  00013bf4    0000001c     stk.aem4f : nimu.oem4f (.text:NIMUAddHeader)
                  00013c10    0000001c               : sockprot.oem4f (.text:SockPrDetach)
                  00013c2c    0000001c     os.aem4f : task.oem4f (.text:TaskDestroy)
                  00013c48    0000001c     driverlib.lib : uart.obj (.text:UARTDisable)
                  00013c64    0000001c     drivers_tivaware.aem4f : GPIOTiva.oem4f (.text:getGpioIntIndex)
                  00013c80    0000001c     rtsv7M4_T_le_v4SPD16_eabi.lib : memccpy.c.obj (.text:memccpy)
                  00013c9c    0000001c     bluetooth_pem4f.oem4f (.text:ti_ndk_config_global_taskCreateHook)
                  00013cb8    0000001c     bluetooth_pem4f.oem4f (.text:ti_sysbios_family_arm_m3_Hwi_Object__destruct__S)
                  00013cd4    00000004     --HOLE-- [fill = 0]
                  00013cd8    0000001c     sysbios.aem4f : BIOS.obj (.text:ti_sysbios_gates_GateMutex_Instance_init__E)
                  00013cf4    00000004     --HOLE-- [fill = 0]
                  00013cf8    0000001c                   : BIOS.obj (.text:ti_sysbios_knl_Clock_Instance_finalize__E)
                  00013d14    0000001c     bluetooth_pem4f.oem4f (.text:ti_sysbios_knl_Queue_Object__destruct__S)
                  00013d30    0000001c     sysbios.aem4f : BIOS.obj (.text:ti_sysbios_knl_Queue_get__E)
                  00013d4c    00000004     --HOLE-- [fill = 0]
                  00013d50    0000001c                   : BIOS.obj (.text:ti_sysbios_knl_Queue_put__E)
                  00013d6c    00000004     --HOLE-- [fill = 0]
                  00013d70    0000001c                   : BIOS.obj (.text:ti_sysbios_knl_Task_enter__I)
                  00013d8c    0000001c     ti.targets.arm.rtsarm.aem4f : Error.oem4f (.text:xdc_runtime_Error_raiseX__E)
                  00013da8    0000001c                                 : Memory.oem4f (.text:xdc_runtime_Memory_valloc__E)
                  00013dc4    0000001c                                 : SysMin.oem4f (.text:xdc_runtime_SysMin_exit__E)
                  00013de0    0000001c                                 : System.oem4f (.text:xdc_runtime_System_abort__E)
                  00013dfc    0000001a     stk.aem4f : bind.oem4f (.text:BindGetIP)
                  00013e16    0000001a               : sockint.oem4f (.text:SockSetOOBMark)
                  00013e30    0000001a     rtsv7M4_T_le_v4SPD16_eabi.lib : s_copysign.c.obj (.text:copysign)
                  00013e4a    0000001a     stk.aem4f : file.oem4f (.text:fdint_getfdt)
                  00013e64    0000001a     bluetooth_pem4f.oem4f (.text:ti_sysbios_family_arm_m3_Hwi_Handle__label__S)
                  00013e7e    0000001a     bluetooth_pem4f.oem4f (.text:ti_sysbios_gates_GateHwi_Handle__label__S)
                  00013e98    0000001a     bluetooth_pem4f.oem4f (.text:ti_sysbios_gates_GateMutex_Handle__label__S)
                  00013eb2    0000001a     bluetooth_pem4f.oem4f (.text:ti_sysbios_heaps_HeapMem_Handle__label__S)
                  00013ecc    0000001a     bluetooth_pem4f.oem4f (.text:ti_sysbios_knl_Swi_Handle__label__S)
                  00013ee6    0000001a     bluetooth_pem4f.oem4f (.text:ti_sysbios_knl_Task_Handle__label__S)
                  00013f00    0000001a     sysbios.aem4f : BIOS.obj (.text:ti_sysbios_knl_Task_sleepTimeout__I)
                  00013f1a    0000001a     bluetooth_pem4f.oem4f (.text:xdc_runtime_System_aprintf__E)
                  00013f34    0000001a     bluetooth_pem4f.oem4f (.text:xdc_runtime_System_printf__E)
                  00013f4e    00000002     --HOLE-- [fill = 0]
                  00013f50    00000018     drivers_tivaware.aem4f : EMACSnow.oem4f (.text:EMACSnow_emacSend)
                  00013f68    00000018     stk.aem4f : ip.oem4f (.text:IPRtChange)
                  00013f80    00000018               : rawethsock_pcb.oem4f (.text:RawEthSockPcbCleanup)
                  00013f98    00000018     nettool_ipv4.aem4f : ipaddr.oem4f (.text:RouteHook)
                  00013fb0    00000018     stk.aem4f : tcpin.oem4f (.text:SEQ_GEQ)
                  00013fc8    00000018               : tcpout.oem4f (.text:SEQ_GEQ)
                  00013fe0    00000018               : tcpin.oem4f (.text:SEQ_GT)
                  00013ff8    00000018               : tcpout.oem4f (.text:SEQ_GT)
                  00014010    00000018               : tcpin.oem4f (.text:SEQ_LEQ)
                  00014028    00000018               : tcpout.oem4f (.text:SEQ_LEQ)
                  00014040    00000018               : tcpin.oem4f (.text:SEQ_LT)
                  00014058    00000018               : tcpout.oem4f (.text:SEQ_LT)
                  00014070    00000018               : tcp.oem4f (.text:TcpTimeoutAdd)
                  00014088    00000018     drivers_tivaware.aem4f : UART.oem4f (.text:UART_Params_init)
                  000140a0    00000018     rtsv7M4_T_le_v4SPD16_eabi.lib : args_main.c.obj (.text:_args_main)
                  000140b8    00000018                                   : snprintf.c.obj (.text:_outc)
                  000140d0    00000018                                   : sprintf.c.obj (.text:_outs)
                  000140e8    00000018     nettool_ipv4.aem4f : dhcpsock.oem4f (.text:dhcpSocketClose)
                  00014100    00000018     stk.aem4f : listlib.oem4f (.text:list_add)
                  00014118    00000018     rtsv7M4_T_le_v4SPD16_eabi.lib : strcmp.c.obj (.text:strcmp)
                  00014130    00000018     bluetooth_pem4f.oem4f (.text:ti_sysbios_BIOS_rtsUnlock__I)
                  00014148    00000018     bluetooth_pem4f.oem4f (.text:ti_sysbios_family_arm_lm4_Timer_Module__startupDone__F)
                  00014160    00000018     bluetooth_pem4f.oem4f (.text:ti_sysbios_family_arm_m3_Hwi_Module__startupDone__F)
                  00014178    00000018     sysbios.aem4f : m3_TaskSupport_asm.obj (.text:ti_sysbios_family_arm_m3_TaskSupport_swap__E)
                  00014190    00000018                   : BIOS.obj (.text:ti_sysbios_gates_GateMutex_leave__E)
                  000141a8    00000018                   : BIOS.obj (.text:ti_sysbios_knl_Task_unblock__E)
                  000141c0    00000018     ti.targets.arm.rtsarm.aem4f : Error.oem4f (.text:xdc_runtime_Error_check__E)
                  000141d8    00000018                                 : System.oem4f (.text:xdc_runtime_System_exit__E)
                  000141f0    00000018                                 : Text.oem4f (.text:xdc_runtime_Text_ropeText__E)
                  00014208    00000016     driverlib.lib : emac.obj (.text:EMACReset)
                  0001421e    00000016                   : emac.obj (.text:EMACRxEnable)
                  00014234    00000016                   : emac.obj (.text:EMACTxEnable)
                  0001424a    00000016     stk.aem4f : file.oem4f (.text:fdint_freefdt)
                  00014260    00000016     rtsv7M4_T_le_v4SPD16_eabi.lib : strchr.c.obj (.text:strchr)
                  00014276    00000016     bluetooth_pem4f.oem4f (.text:ti_sysbios_BIOS_exitFunc__I)
                  0001428c    00000016     bluetooth.obj (.text:ti_sysbios_knl_Task_Params_init)
                  000142a2    00000016     ti.targets.arm.rtsarm.aem4f : System.oem4f (.text:xdc_runtime_System_vsprintf__E)
                  000142b8    00000014     stk.aem4f : bind.oem4f (.text:BindIPHost2IF)
                  000142cc    00000014     driverlib.lib : flash.obj (.text:FlashUserGet)
                  000142e0    00000014     netctrl_min_ipv4.aem4f : netctrl.oem4f (.text:NC_NetStop)
                  000142f4    00000014     os.aem4f : task.oem4f (.text:NDK_hookExit)
                  00014308    00000014     stk.aem4f : nimu.oem4f (.text:NIMUSendPacket)
                  0001431c    00000014     nettool_ipv4.aem4f : ipaddr.oem4f (.text:NtRemoveNetwork)
                  00014330    00000014     stk.aem4f : rawethsock_pcb.oem4f (.text:RawEthSockPcbInit)
                  00014344    00000014               : timer.oem4f (.text:TimerFree)
                  00014358    00000014     driverlib.lib : uart.obj (.text:UARTEnable)
                  0001436c    00000014     bluetooth.obj (.text:connect)
                  00014380    00000014     bluetooth.obj (.text:socket)
                  00014394    00000014     rtsv7M4_T_le_v4SPD16_eabi.lib : strcpy.c.obj (.text:strcpy)
                  000143a8    00000014                                   : strlen.c.obj (.text:strlen)
                  000143bc    00000014     bluetooth_pem4f.oem4f (.text:ti_ndk_config_global_taskExitHook)
                  000143d0    00000014     bluetooth_pem4f.oem4f (.text:ti_sysbios_family_arm_m3_Hwi_Object__get__S)
                  000143e4    00000004     --HOLE-- [fill = 0]
                  000143e8    00000014     sysbios.aem4f : BIOS.obj (.text:ti_sysbios_family_arm_m3_Hwi_switchFromBootStack__E)
                  000143fc    00000014     bluetooth_pem4f.oem4f (.text:ti_sysbios_heaps_HeapMem_Object__get__S)
                  00014410    00000014     bluetooth_pem4f.oem4f (.text:ti_sysbios_knl_Mailbox_Object__get__S)
                  00014424    00000014     bluetooth_pem4f.oem4f (.text:ti_sysbios_knl_Swi_Object__get__S)
                  00014438    00000014     bluetooth_pem4f.oem4f (.text:ti_sysbios_knl_Task_Object__first__S)
                  0001444c    00000014     bluetooth_pem4f.oem4f (.text:ti_sysbios_knl_Task_Object__next__S)
                  00014460    00000014     bluetooth.obj (.text:timerHWI)
                  00014474    00000012     driverlib.lib : gpio.obj (.text:GPIOPinTypeEthernetLED)
                  00014486    00000012                   : gpio.obj (.text:GPIOPinTypeUART)
                  00014498    00000012     drivers_tivaware.aem4f : RingBuf.oem4f (.text:RingBuf_construct)
                  000144aa    00000012     stk.aem4f : sockprot.oem4f (.text:SockPrAttach)
                  000144bc    00000012               : sockint.oem4f (.text:SockSetOOBData)
                  000144ce    00000002     --HOLE-- [fill = 0]
                  000144d0    00000012     sysbios.aem4f : BIOS.obj (.text:ti_sysbios_hal_Hwi_Module_startup__E)
                  000144e2    00000006     driverlib.lib : gpio.obj (.text:GPIOIntClear)
                  000144e8    00000012     sysbios.aem4f : BIOS.obj (.text:ti_sysbios_hal_Timer_Module_startup__E)
                  000144fa    00000006     driverlib.lib : gpio.obj (.text:GPIOPinWrite)
                  00014500    00000012     sysbios.aem4f : BIOS.obj (.text:ti_sysbios_knl_Semaphore_reset__E)
                  00014512    00000012     rtsv7M4_T_le_v4SPD16_eabi.lib : wcslen.c.obj (.text:wcslen)
                  00014524    00000012     bluetooth_pem4f.oem4f (.text:xdc_runtime_Startup_exec__I)
                  00014536    00000002     --HOLE-- [fill = 0]
                  00014538    00000010     bluetooth_pem4f.oem4f (.text:.bootCodeSection:ti_catalog_arm_cortexm4_tiva_ce_Boot_init__I)
                  00014548    00000010     stk.aem4f : bind.oem4f (.text:BindIF2IPHost)
                  00014558    00000010               : bind.oem4f (.text:BindIFNet2IPHost)
                  00014568    00000010     driverlib.lib : emac.obj (.text:EMACFrameFilterSet)
                  00014578    00000010     stk.aem4f : exec.oem4f (.text:ExecHRef)
                  00014588    00000010     netctrl_min_ipv4.aem4f : netctrl.oem4f (.text:NC_IPUpdate)
                  00014598    00000010     stk.aem4f : nimu.oem4f (.text:NIMUGetRsvdSizeInfo)
                  000145a8    00000010     drivers_tivaware.aem4f : UARTTiva.oem4f (.text:readBlockingTimeout)
                  000145b8    00000010     sysbios.aem4f : BIOS.obj (.text:ti_sysbios_BIOS_exit__E)
                  000145c8    00000010                   : BIOS.obj (.text:ti_sysbios_BIOS_getCpuFreq__E)
                  000145d8    00000010                   : BIOS.obj (.text:ti_sysbios_BIOS_setThreadType__E)
                  000145e8    00000010                   : BIOS.obj (.text:ti_sysbios_BIOS_start__E)
                  000145f8    00000010                   : m3_TaskSupport_asm.obj (.text:ti_sysbios_family_arm_m3_TaskSupport_glue)
                  00014608    00000010                   : BIOS.obj (.text:ti_sysbios_gates_GateMutex_Instance_finalize__E)
                  00014618    00000010                   : BIOS.obj (.text:ti_sysbios_knl_Semaphore_Instance_finalize__E)
                  00014628    00000010                   : BIOS.obj (.text:ti_sysbios_knl_Swi_disable__E)
                  00014638    00000010     bluetooth_pem4f.oem4f (.text:ti_sysbios_knl_Task_Object__get__S)
                  00014648    00000010     sysbios.aem4f : BIOS.obj (.text:ti_sysbios_knl_Task_disable__E)
                  00014658    00000010     ti.targets.arm.rtsarm.aem4f : Gate.oem4f (.text:xdc_runtime_Gate_leaveSystem__E)
                  00014668    00000010                                 : Memory.oem4f (.text:xdc_runtime_Memory_free__E)
                  00014678    00000010                                 : SysMin.oem4f (.text:xdc_runtime_SysMin_ready__E)
                  00014688    00000010                                 : System.oem4f (.text:xdc_runtime_System_vsnprintf__E)
                  00014698    00000010     bluetooth_pem4f.oem4f (.text:xdc_runtime_Text_visitRope__I)
                  000146a8    0000000e     drivers_tivaware.aem4f : EMACSnow.oem4f (.text:EMACSnow_emacioctl)
                  000146b6    0000000e     stk.aem4f : exec.oem4f (.text:ExecLowResource)
                  000146c4    0000000e     driverlib.lib : gpio.obj (.text:GPIOIntStatus)
                  000146d2    0000000e                   : uart.obj (.text:UARTCharGetNonBlocking)
                  000146e0    0000000e                   : uart.obj (.text:UARTCharPutNonBlocking)
                  000146ee    0000000e     rtsv7M4_T_le_v4SPD16_eabi.lib : copy_decompress_none.c.obj (.text:decompress:none:__TI_decompress_none)
                  000146fc    00000004     --HOLE-- [fill = 0]
                  00014700    0000000e     sysbios.aem4f : BIOS.obj (.text:ti_sysbios_knl_Clock_removeI__E)
                  0001470e    00000002     --HOLE-- [fill = 0]
                  00014710    0000000e                   : BIOS.obj (.text:ti_sysbios_knl_Idle_loop__E)
                  0001471e    00000002     --HOLE-- [fill = 0]
                  00014720    0000000e                   : BIOS.obj (.text:ti_sysbios_knl_Queue_empty__E)
                  0001472e    00000002     --HOLE-- [fill = 0]
                  00014730    0000000c     stk.aem4f : bind.oem4f (.text:BindGetFirst)
                  0001473c    0000000c     nettool_ipv4.aem4f : config.oem4f (.text:CfgSetDefault)
                  00014748    0000000c     drivers_tivaware.aem4f : EMACSnow.oem4f (.text:EMACSnow_init)
                  00014754    0000000c     os.aem4f : task.oem4f (.text:NDK_hookInit)
                  00014760    0000000c     stk.aem4f : nimu.oem4f (.text:NIMUSetRsvdSizeInfo)
                  0001476c    0000000c     os.aem4f : task.oem4f (.text:NotifyLowResource)
                  00014778    0000000c     stk.aem4f : pbm.oem4f (.text:PBM_close)
                  00014784    0000000c     drivers_tivaware.aem4f : RingBuf.oem4f (.text:RingBuf_peek)
                  00014790    0000000c     os.aem4f : semaphore.oem4f (.text:SemDelete)
                  0001479c    0000000c     driverlib.lib : uart.obj (.text:UARTFlowControlSet)
                  000147a8    0000000c     drivers_tivaware.aem4f : UARTTiva.oem4f (.text:UARTTiva_init)
                  000147b4    0000000c     hal_timer_bios.aem4f : lltimer.oem4f (.text:_llTimerShutdown)
                  000147c0    0000000c     rtsv7M4_T_le_v4SPD16_eabi.lib : _lock.c.obj (.text:_register_lock)
                  000147cc    0000000c                                   : _lock.c.obj (.text:_register_unlock)
                  000147d8    0000000c     bluetooth.obj (.text:close)
                  000147e4    0000000c     rtsv7M4_T_le_v4SPD16_eabi.lib : copy_zero_init.c.obj (.text:decompress:ZI:__TI_zero_init)
                  000147f0    0000000c     hal_timer_bios.aem4f : lltimer.oem4f (.text:llTimerGetStartTime)
                  000147fc    00000004     --HOLE-- [fill = 0]
                  00014800    0000000c     sysbios.aem4f : BIOS.obj (.text:ti_sysbios_BIOS_getThreadType__E)
                  0001480c    00000004     --HOLE-- [fill = 0]
                  00014810    0000000c                   : BIOS.obj (.text:ti_sysbios_family_arm_lm4_Timer_getMaxTicks__E)
                  0001481c    0000000c     bluetooth_pem4f.oem4f (.text:ti_sysbios_family_arm_m3_Hwi_Params__init__S)
                  00014828    0000000c     sysbios.aem4f : BIOS.obj (.text:ti_sysbios_family_arm_m3_Hwi_disableFxn__E)
                  00014834    00000004     --HOLE-- [fill = 0]
                  00014838    0000000c                   : BIOS.obj (.text:ti_sysbios_family_arm_m3_TaskSupport_checkStack__E)
                  00014844    00000004     --HOLE-- [fill = 0]
                  00014848    0000000c                   : BIOS.obj (.text:ti_sysbios_family_arm_m3_TaskSupport_getStackAlignment__E)
                  00014854    00000004     --HOLE-- [fill = 0]
                  00014858    0000000c                   : BIOS.obj (.text:ti_sysbios_gates_GateHwi_enter__E)
                  00014864    0000000c     bluetooth_pem4f.oem4f (.text:ti_sysbios_knl_Clock_Params__init__S)
                  00014870    0000000c     sysbios.aem4f : BIOS.obj (.text:ti_sysbios_knl_Clock_getTicks__E)
                  0001487c    0000000c     bluetooth_pem4f.oem4f (.text:ti_sysbios_knl_Queue_Object__get__S)
                  00014888    0000000c     bluetooth_pem4f.oem4f (.text:ti_sysbios_knl_Semaphore_Params__init__S)
                  00014894    0000000c     bluetooth_pem4f.oem4f (.text:ti_sysbios_knl_Task_Params__init__S)
                  000148a0    0000000c     sysbios.aem4f : BIOS.obj (.text:ti_sysbios_knl_Task_getIdleTask__E)
                  000148ac    00000004     --HOLE-- [fill = 0]
                  000148b0    0000000c                   : BIOS.obj (.text:ti_sysbios_knl_Task_self__E)
                  000148bc    0000000c     ti.targets.arm.rtsarm.aem4f : Error.oem4f (.text:xdc_runtime_Error_init__E)
                  000148c8    0000000c                                 : Gate.oem4f (.text:xdc_runtime_Gate_enterSystem__E)
                  000148d4    0000000c                                 : Memory.oem4f (.text:xdc_runtime_Memory_calloc__E)
                  000148e0    0000000c                                 : Memory.oem4f (.text:xdc_runtime_Memory_getMaxDefaultTypeAlign__E)
                  000148ec    0000000a     driverlib.lib : uart.obj (.text:UARTCharGet)
                  000148f6    0000000a                   : uart.obj (.text:UARTCharPut)
                  00014900    0000000a                   : uart.obj (.text:UARTIntDisable)
                  0001490a    0000000a                   : uart.obj (.text:UARTIntStatus)
                  00014914    0000000a     drivers_tivaware.aem4f : UART.oem4f (.text:UART_read)
                  0001491e    0000000a     rtsv7M4_T_le_v4SPD16_eabi.lib : sprintf.c.obj (.text:_outc)
                  00014928    0000000a     stk.aem4f : file.oem4f (.text:fdint_signalevent)
                  00014932    0000000a               : file.oem4f (.text:fdint_signaltimeout)
                  0001493c    0000000a     bluetooth_pem4f.oem4f (.text:xdc_runtime_IHeap_alloc)
                  00014946    0000000a     bluetooth_pem4f.oem4f (.text:xdc_runtime_IHeap_free)
                  00014950    00000008     EK_TM4C1294XL.obj (.text:EK_TM4C1294XL_initGPIO)
                  00014958    00000008     driverlib.lib : emac.obj (.text:EMACTxDMAPollDemand)
                  00014960    00000008     stk.aem4f : node.oem4f (.text:NodeFree)
                  00014968    00000008     os.aem4f : task.oem4f (.text:TaskBlock)
                  00014970    00000008     driverlib.lib : uart.obj (.text:UARTIntEnable)
                  00014978    00000008                   : uart.obj (.text:UARTRxErrorGet)
                  00014980    00000008     rtsv7M4_T_le_v4SPD16_eabi.lib : errno.c.obj (.text:__aeabi_errno_addr)
                  00014988    00000008     drivers_tivaware.aem4f : UARTTiva.oem4f (.text:readSemCallback)
                  00014990    00000008     sysbios.aem4f : BIOS.obj (.text:ti_sysbios_family_arm_lm4_Timer_masterDisable__I)
                  00014998    00000008                   : BIOS.obj (.text:ti_sysbios_family_arm_m3_Hwi_doSwiRestore__I)
                  000149a0    00000008                   : BIOS.obj (.text:ti_sysbios_family_arm_m3_Hwi_startup__E)
                  000149a8    00000008                   : BIOS.obj (.text:ti_sysbios_knl_Task_getHookContext__E)
                  000149b0    00000008                   : BIOS.obj (.text:ti_sysbios_knl_Task_setHookContext__E)
                  000149b8    00000008     drivers_tivaware.aem4f : UARTTiva.oem4f (.text:writeSemCallback)
                  000149c0    00000006     driverlib.lib : sysctl.obj (.text:SysCtlDelay)
                  000149c6    00000006     stk.aem4f : tcpprot.oem4f (.text:TcpPrRecv)
                  000149cc    00000006     driverlib.lib : uart.obj (.text:UARTFIFOLevelSet)
                  000149d2    00000006                   : uart.obj (.text:UARTRxErrorClear)
                  000149d8    00000006     ti.targets.arm.rtsarm.aem4f : xdc_noinit.oem4f (.text:__xdc__init)
                  000149de    00000002     --HOLE-- [fill = 0]
                  000149e0    00000006     sysbios.aem4f : BIOS.obj (.text:ti_sysbios_family_arm_m3_Hwi_doTaskRestore__I)
                  000149e6    00000002     --HOLE-- [fill = 0]
                  000149e8    00000006                   : BIOS.obj (.text:ti_sysbios_family_arm_m3_Hwi_restoreFxn__E)
                  000149ee    00000002     --HOLE-- [fill = 0]
                  000149f0    00000006                   : BIOS.obj (.text:ti_sysbios_gates_GateHwi_leave__E)
                  000149f6    00000002     --HOLE-- [fill = 0]
                  000149f8    00000006                   : BIOS.obj (.text:ti_sysbios_heaps_HeapMem_isBlocking__E)
                  000149fe    00000002     --HOLE-- [fill = 0]
                  00014a00    00000006                   : BIOS.obj (.text:ti_sysbios_knl_Clock_stop__E)
                  00014a06    00000002     --HOLE-- [fill = 0]
                  00014a08    00000006                   : BIOS.obj (.text:ti_sysbios_knl_Queue_Instance_init__E)
                  00014a0e    00000002     --HOLE-- [fill = 0]
                  00014a10    00000006                   : BIOS.obj (.text:ti_sysbios_knl_Swi_startup__E)
                  00014a16    00000006     ti.targets.arm.rtsarm.aem4f : System.oem4f (.text:xdc_runtime_System_Module_startup__E)
                  00014a1c    00000004     --HOLE-- [fill = 0]
                  00014a20    00000004     sysbios.aem4f : BIOS.obj (.text:ti_sysbios_gates_GateHwi_query__E)
                  00014a24    00000004     --HOLE-- [fill = 0]
                  00014a28    00000004                   : BIOS.obj (.text:ti_sysbios_gates_GateMutex_query__E)
                  00014a2c    00000004     --HOLE-- [fill = 0]
                  00014a30    00000004                   : BIOS.obj (.text:ti_sysbios_knl_Task_startup__E)
                  00014a34    00000004     --HOLE-- [fill = 0]
                  00014a38    00000002                   : BIOS.obj (.text:ti_sysbios_gates_GateHwi_Instance_init__E)
                  00014a3a    00000006     --HOLE-- [fill = 0]
                  00014a40    00000002                   : BIOS.obj (.text:ti_sysbios_knl_Clock_logTick__E)
                  00014a42    00000006     --HOLE-- [fill = 0]
                  00014a48    00000002                   : BIOS.obj (.text:ti_sysbios_knl_Swi_Instance_finalize__E)

.const     0    00014a4c    00002741     
                  00014a4c    00001972     bluetooth_pem4f.oem4f (.const:xdc_runtime_Text_charTab__A)
                  000163be    00000002     bluetooth_pem4f.oem4f (.const:ti_catalog_arm_cortexm4_tiva_ce_Boot_Module__id__C)
                  000163c0    00000120     Boot.aem4f : Boot_sysctl.oem4f (.const:g_pppui32XTALtoVCO)
                  000164e0    00000101     rtsv7M4_T_le_v4SPD16_eabi.lib : ctype.c.obj (.const:.string:_ctypes_)
                  000165e1    00000001     bluetooth_pem4f.oem4f (.const:.string:$P$T0$1)
                  000165e2    000000dc     bluetooth_pem4f.oem4f (.const:xdc_runtime_Text_nodeTab__A)
                  000166be    00000002     bluetooth_pem4f.oem4f (.const:ti_sysbios_family_arm_m3_Hwi_Module__id__C)
                  000166c0    000000cc     bluetooth_pem4f.oem4f (.const:.string)
                  0001678c    000000ae     rtsv7M4_T_le_v4SPD16_eabi.lib : strftime.c.obj (.const:.string)
                  0001683a    00000002     bluetooth_pem4f.oem4f (.const:ti_sysbios_hal_Hwi_Module__id__C)
                  0001683c    00000090     driverlib.lib : gpio.obj (.const:g_pui32GPIOBaseAddrs)
                  000168cc    0000006c     Boot.aem4f : Boot_sysctl.oem4f (.const:g_pui32Xtals)
                  00016938    00000060     rtsv7M4_T_le_v4SPD16_eabi.lib : mktime.c.obj (.const:$O1$$)
                  00016998    00000054     drivers_tivaware.aem4f : GPIOTiva.oem4f (.const:.string)
                  000169ec    00000054     stk.aem4f : sockprot.oem4f (.const:Code2Err)
                  00016a40    0000004c     rtsv7M4_T_le_v4SPD16_eabi.lib : strftime.c.obj (.const:$O1$$)
                  00016a8c    0000004c     drivers_tivaware.aem4f : UARTTiva.oem4f (.const)
                  00016ad8    00000048                            : GPIOTiva.oem4f (.const:gpioBaseAddresses)
                  00016b20    0000003e     stk.aem4f : rtc.oem4f (.const:.string)
                  00016b5e    00000002     bluetooth_pem4f.oem4f (.const:ti_sysbios_heaps_HeapMem_Module__id__C)
                  00016b60    0000003c     bluetooth_pem4f.oem4f (.const)
                  00016b9c    0000003c     bluetooth_pem4f.oem4f (.const:ti_sysbios_knl_Task_Object__PARAMS__C)
                  00016bd8    00000030     Boot.aem4f : Boot_sysctl.oem4f (.const:g_sXTALtoMEMTIM)
                  00016c08    00000030     bluetooth_pem4f.oem4f (.const:ti_sysbios_family_arm_m3_Hwi_Object__PARAMS__C)
                  00016c38    00000028     drivers_tivaware.aem4f : UARTTiva.oem4f (.const:UARTTiva_fxnTable)
                  00016c60    00000028     bluetooth_pem4f.oem4f (.const:ti_sysbios_heaps_HeapMem_Module__FXNS__C)
                  00016c88    00000028     bluetooth_pem4f.oem4f (.const:ti_sysbios_knl_Swi_Object__PARAMS__C)
                  00016cb0    00000028     bluetooth_pem4f.oem4f (.const:xdc_runtime_Startup_sfxnTab__A)
                  00016cd8    00000024     drivers_tivaware.aem4f : UART.oem4f (.const:UART_defaultParams)
                  00016cfc    00000024     bluetooth_pem4f.oem4f (.const:ti_sysbios_gates_GateHwi_Module__FXNS__C)
                  00016d20    00000024     bluetooth_pem4f.oem4f (.const:ti_sysbios_gates_GateMutex_Module__FXNS__C)
                  00016d44    00000024     bluetooth_pem4f.oem4f (.const:ti_sysbios_heaps_HeapMem_Object__PARAMS__C)
                  00016d68    00000024     bluetooth_pem4f.oem4f (.const:ti_sysbios_knl_Clock_Object__PARAMS__C)
                  00016d8c    00000024     bluetooth_pem4f.oem4f (.const:ti_sysbios_knl_Semaphore_Object__PARAMS__C)
                  00016db0    00000020     bluetooth_pem4f.oem4f (.const:ti_sysbios_family_arm_m3_Hwi_Object__DESC__C)
                  00016dd0    00000020     bluetooth_pem4f.oem4f (.const:ti_sysbios_gates_GateHwi_Object__DESC__C)
                  00016df0    00000020     bluetooth_pem4f.oem4f (.const:ti_sysbios_gates_GateMutex_Object__DESC__C)
                  00016e10    00000020     bluetooth_pem4f.oem4f (.const:ti_sysbios_heaps_HeapMem_Object__DESC__C)
                  00016e30    00000020     bluetooth_pem4f.oem4f (.const:ti_sysbios_knl_Clock_Object__DESC__C)
                  00016e50    00000020     bluetooth_pem4f.oem4f (.const:ti_sysbios_knl_Queue_Object__DESC__C)
                  00016e70    00000020     bluetooth_pem4f.oem4f (.const:ti_sysbios_knl_Semaphore_Object__DESC__C)
                  00016e90    00000020     bluetooth_pem4f.oem4f (.const:ti_sysbios_knl_Swi_Object__DESC__C)
                  00016eb0    00000020     bluetooth_pem4f.oem4f (.const:ti_sysbios_knl_Task_Object__DESC__C)
                  00016ed0    00000018     EK_TM4C1294XL.obj (.const:EMAC_config)
                  00016ee8    00000018     EK_TM4C1294XL.obj (.const:UART_config)
                  00016f00    00000018     driverlib.lib : emac.obj (.const)
                  00016f18    00000018     bluetooth_pem4f.oem4f (.const:ti_sysbios_gates_GateHwi_Object__PARAMS__C)
                  00016f30    00000018     bluetooth_pem4f.oem4f (.const:ti_sysbios_gates_GateMutex_Object__PARAMS__C)
                  00016f48    00000018     bluetooth_pem4f.oem4f (.const:ti_sysbios_knl_Queue_Object__PARAMS__C)
                  00016f60    00000018     bluetooth_pem4f.oem4f (.const:ti_sysbios_knl_Task_hooks__A)
                  00016f78    00000018     EK_TM4C1294XL.obj (.const:uartTivaHWAttrs)
                  00016f90    00000014     EK_TM4C1294XL.obj (.const:GPIOTiva_config)
                  00016fa4    00000014     bluetooth_pem4f.oem4f (.const:xdc_runtime_Startup_firstFxns__A)
                  00016fb8    00000014     bluetooth_pem4f.oem4f (.const:xdc_runtime_Startup_sfxnRts__A)
                  00016fcc    00000010     EK_TM4C1294XL.obj (.const:emacHWAttrs)
                  00016fdc    00000008     Boot.aem4f : Boot_sysctl.oem4f (.const)
                  00016fe4    00000008     drivers_tivaware.aem4f : EMACSnow.oem4f (.const)
                  00016fec    00000008     bluetooth_pem4f.oem4f (.const:ti_sysbios_family_arm_m3_Hwi_excHookFuncs__A)
                  00016ff4    00000008     bluetooth_pem4f.oem4f (.const:ti_sysbios_knl_Idle_funcList__A)
                  00016ffc    00000008     bluetooth_pem4f.oem4f (.const:ti_sysbios_knl_Idle_funcList__C)
                  00017004    00000008     bluetooth_pem4f.oem4f (.const:ti_sysbios_knl_Task_hooks__C)
                  0001700c    00000008     bluetooth_pem4f.oem4f (.const:xdc_runtime_Startup_firstFxns__C)
                  00017014    00000008     bluetooth_pem4f.oem4f (.const:xdc_runtime_Startup_lastFxns__C)
                  0001701c    00000004     bluetooth_pem4f.oem4f (.const:ti_catalog_arm_cortexm4_tiva_ce_Boot_A_mustNotUseEnhancedClockMode__C)
                  00017020    00000004     bluetooth_pem4f.oem4f (.const:ti_catalog_arm_cortexm4_tiva_ce_Boot_Module__diagsEnabled__C)
                  00017024    00000004     bluetooth_pem4f.oem4f (.const:ti_catalog_arm_cortexm4_tiva_ce_Boot_Module__diagsIncluded__C)
                  00017028    00000004     bluetooth_pem4f.oem4f (.const:ti_catalog_arm_cortexm4_tiva_ce_Boot_Module__diagsMask__C)
                  0001702c    00000004     bluetooth_pem4f.oem4f (.const:ti_sysbios_family_arm_lm4_Timer_enableFunc__C)
                  00017030    00000004     bluetooth_pem4f.oem4f (.const:ti_sysbios_family_arm_lm4_Timer_numTimerDevices__C)
                  00017034    00000004     bluetooth_pem4f.oem4f (.const:ti_sysbios_family_arm_lm4_Timer_startupNeeded__C)
                  00017038    00000004     bluetooth_pem4f.oem4f (.const:ti_sysbios_family_arm_m3_Hwi_E_NMI__C)
                  0001703c    00000004     bluetooth_pem4f.oem4f (.const:ti_sysbios_family_arm_m3_Hwi_E_alreadyDefined__C)
                  00017040    00000004     bluetooth_pem4f.oem4f (.const:ti_sysbios_family_arm_m3_Hwi_E_busFault__C)
                  00017044    00000004     bluetooth_pem4f.oem4f (.const:ti_sysbios_family_arm_m3_Hwi_E_debugMon__C)
                  00017048    00000004     bluetooth_pem4f.oem4f (.const:ti_sysbios_family_arm_m3_Hwi_E_hardFault__C)
                  0001704c    00000004     bluetooth_pem4f.oem4f (.const:ti_sysbios_family_arm_m3_Hwi_E_memFault__C)
                  00017050    00000004     bluetooth_pem4f.oem4f (.const:ti_sysbios_family_arm_m3_Hwi_E_noIsr__C)
                  00017054    00000004     bluetooth_pem4f.oem4f (.const:ti_sysbios_family_arm_m3_Hwi_E_reserved__C)
                  00017058    00000004     bluetooth_pem4f.oem4f (.const:ti_sysbios_family_arm_m3_Hwi_E_svCall__C)
                  0001705c    00000004     bluetooth_pem4f.oem4f (.const:ti_sysbios_family_arm_m3_Hwi_E_usageFault__C)
                  00017060    00000004     bluetooth_pem4f.oem4f (.const:ti_sysbios_family_arm_m3_Hwi_NUM_INTERRUPTS__C)
                  00017064    00000004     bluetooth_pem4f.oem4f (.const:ti_sysbios_family_arm_m3_Hwi_Object__count__C)
                  00017068    00000004     bluetooth_pem4f.oem4f (.const:ti_sysbios_family_arm_m3_Hwi_ccr__C)
                  0001706c    00000004     bluetooth_pem4f.oem4f (.const:ti_sysbios_family_arm_m3_Hwi_excHandlerFunc__C)
                  00017070    00000004     bluetooth_pem4f.oem4f (.const:ti_sysbios_family_arm_m3_Hwi_excHookFuncs__C)
                  00017074    00000004     bluetooth_pem4f.oem4f (.const:ti_sysbios_family_arm_m3_Hwi_nullIsrFunc__C)
                  00017078    00000004     bluetooth_pem4f.oem4f (.const:ti_sysbios_family_arm_m3_Hwi_priGroup__C)
                  0001707c    00000004     bluetooth_pem4f.oem4f (.const:ti_sysbios_family_arm_m3_TaskSupport_stackAlignment__C)
                  00017080    00000004     bluetooth_pem4f.oem4f (.const:ti_sysbios_gates_GateMutex_Instance_State_sem__O)
                  00017084    00000004     bluetooth_pem4f.oem4f (.const:ti_sysbios_hal_Hwi_E_stackOverflow__C)
                  00017088    00000004     bluetooth_pem4f.oem4f (.const:ti_sysbios_heaps_HeapMem_E_memory__C)
                  0001708c    00000004     bluetooth_pem4f.oem4f (.const:ti_sysbios_heaps_HeapMem_Module__gateObj__C)
                  00017090    00000004     bluetooth_pem4f.oem4f (.const:ti_sysbios_heaps_HeapMem_Object__count__C)
                  00017094    00000004     bluetooth_pem4f.oem4f (.const:ti_sysbios_heaps_HeapMem_reqAlign__C)
                  00017098    00000004     bluetooth_pem4f.oem4f (.const:ti_sysbios_knl_Clock_Module_State_clockQ__O)
                  0001709c    00000004     bluetooth_pem4f.oem4f (.const:ti_sysbios_knl_Event_Instance_State_pendQ__O)
                  000170a0    00000004     bluetooth_pem4f.oem4f (.const:ti_sysbios_knl_Mailbox_Instance_State_dataQue__O)
                  000170a4    00000004     bluetooth_pem4f.oem4f (.const:ti_sysbios_knl_Mailbox_Instance_State_dataSem__O)
                  000170a8    00000004     bluetooth_pem4f.oem4f (.const:ti_sysbios_knl_Mailbox_Instance_State_freeQue__O)
                  000170ac    00000004     bluetooth_pem4f.oem4f (.const:ti_sysbios_knl_Mailbox_Instance_State_freeSem__O)
                  000170b0    00000004     bluetooth_pem4f.oem4f (.const:ti_sysbios_knl_Mailbox_Object__count__C)
                  000170b4    00000004     bluetooth_pem4f.oem4f (.const:ti_sysbios_knl_Mailbox_maxTypeAlign__C)
                  000170b8    00000004     bluetooth_pem4f.oem4f (.const:ti_sysbios_knl_Semaphore_Instance_State_pendQ__O)
                  000170bc    00000004     bluetooth_pem4f.oem4f (.const:ti_sysbios_knl_Swi_Object__count__C)
                  000170c0    00000004     bluetooth_pem4f.oem4f (.const:ti_sysbios_knl_Task_E_deleteNotAllowed__C)
                  000170c4    00000004     bluetooth_pem4f.oem4f (.const:ti_sysbios_knl_Task_E_spOutOfBounds__C)
                  000170c8    00000004     bluetooth_pem4f.oem4f (.const:ti_sysbios_knl_Task_E_stackOverflow__C)
                  000170cc    00000004     bluetooth_pem4f.oem4f (.const:ti_sysbios_knl_Task_Module_State_inactiveQ__O)
                  000170d0    00000004     bluetooth_pem4f.oem4f (.const:ti_sysbios_knl_Task_Module_State_terminatedQ__O)
                  000170d4    00000004     bluetooth_pem4f.oem4f (.const:ti_sysbios_knl_Task_Object__count__C)
                  000170d8    00000004     bluetooth_pem4f.oem4f (.const:ti_sysbios_knl_Task_Object__heap__C)
                  000170dc    00000004     bluetooth_pem4f.oem4f (.const:ti_sysbios_knl_Task_allBlockedFunc__C)
                  000170e0    00000004     bluetooth_pem4f.oem4f (.const:ti_sysbios_knl_Task_defaultStackHeap__C)
                  000170e4    00000004     bluetooth_pem4f.oem4f (.const:ti_sysbios_knl_Task_defaultStackSize__C)
                  000170e8    00000004     bluetooth_pem4f.oem4f (.const:ti_sysbios_knl_Task_numConstructedTasks__C)
                  000170ec    00000004     bluetooth_pem4f.oem4f (.const:xdc_runtime_Assert_E_assertFailed__C)
                  000170f0    00000004     bluetooth_pem4f.oem4f (.const:xdc_runtime_Core_A_initializedParams__C)
                  000170f4    00000004     bluetooth_pem4f.oem4f (.const:xdc_runtime_Core_Module__diagsEnabled__C)
                  000170f8    00000004     bluetooth_pem4f.oem4f (.const:xdc_runtime_Core_Module__diagsIncluded__C)
                  000170fc    00000004     bluetooth_pem4f.oem4f (.const:xdc_runtime_Core_Module__diagsMask__C)
                  00017100    00000004     bluetooth_pem4f.oem4f (.const:xdc_runtime_Error_E_memory__C)
                  00017104    00000004     bluetooth_pem4f.oem4f (.const:xdc_runtime_Error_Module__diagsEnabled__C)
                  00017108    00000004     bluetooth_pem4f.oem4f (.const:xdc_runtime_Error_Module__diagsIncluded__C)
                  0001710c    00000004     bluetooth_pem4f.oem4f (.const:xdc_runtime_Error_Module__diagsMask__C)
                  00017110    00000004     bluetooth_pem4f.oem4f (.const:xdc_runtime_Error_Module__loggerFxn8__C)
                  00017114    00000004     bluetooth_pem4f.oem4f (.const:xdc_runtime_Error_Module__loggerObj__C)
                  00017118    00000004     bluetooth_pem4f.oem4f (.const:xdc_runtime_Error_policyFxn__C)
                  0001711c    00000004     bluetooth_pem4f.oem4f (.const:xdc_runtime_Error_raiseHook__C)
                  00017120    00000004     bluetooth_pem4f.oem4f (.const:xdc_runtime_IGateProvider_Interface__BASE__C)
                  00017124    00000004     bluetooth_pem4f.oem4f (.const:xdc_runtime_IHeap_Interface__BASE__C)
                  00017128    00000004     bluetooth_pem4f.oem4f (.const:xdc_runtime_IModule_Interface__BASE__C)
                  0001712c    00000004     bluetooth_pem4f.oem4f (.const:xdc_runtime_Log_L_error__C)
                  00017130    00000004     bluetooth_pem4f.oem4f (.const:xdc_runtime_Memory_defaultHeapInstance__C)
                  00017134    00000004     bluetooth_pem4f.oem4f (.const:xdc_runtime_Startup_execImpl__C)
                  00017138    00000004     bluetooth_pem4f.oem4f (.const:xdc_runtime_Startup_maxPasses__C)
                  0001713c    00000004     bluetooth_pem4f.oem4f (.const:xdc_runtime_Startup_sfxnRts__C)
                  00017140    00000004     bluetooth_pem4f.oem4f (.const:xdc_runtime_Startup_sfxnTab__C)
                  00017144    00000004     bluetooth_pem4f.oem4f (.const:xdc_runtime_SysMin_bufSize__C)
                  00017148    00000004     bluetooth_pem4f.oem4f (.const:xdc_runtime_SysMin_outputFunc__C)
                  0001714c    00000004     bluetooth_pem4f.oem4f (.const:xdc_runtime_System_Module__gateObj__C)
                  00017150    00000004     bluetooth_pem4f.oem4f (.const:xdc_runtime_System_abortFxn__C)
                  00017154    00000004     bluetooth_pem4f.oem4f (.const:xdc_runtime_System_exitFxn__C)
                  00017158    00000004     bluetooth_pem4f.oem4f (.const:xdc_runtime_System_extendFxn__C)
                  0001715c    00000004     bluetooth_pem4f.oem4f (.const:xdc_runtime_System_maxAtexitHandlers__C)
                  00017160    00000004     bluetooth_pem4f.oem4f (.const:xdc_runtime_Text_charTab__C)
                  00017164    00000004     bluetooth_pem4f.oem4f (.const:xdc_runtime_Text_nameEmpty__C)
                  00017168    00000004     bluetooth_pem4f.oem4f (.const:xdc_runtime_Text_nameStatic__C)
                  0001716c    00000004     bluetooth_pem4f.oem4f (.const:xdc_runtime_Text_nameUnknown__C)
                  00017170    00000004     bluetooth_pem4f.oem4f (.const:xdc_runtime_Text_nodeTab__C)
                  00017174    00000004     bluetooth_pem4f.oem4f (.const:xdc_runtime_Text_visitRopeFxn__C)
                  00017178    00000002     bluetooth_pem4f.oem4f (.const:ti_sysbios_knl_Task_Module__id__C)
                  0001717a    00000002     bluetooth_pem4f.oem4f (.const:xdc_runtime_Core_Module__id__C)
                  0001717c    00000002     bluetooth_pem4f.oem4f (.const:xdc_runtime_Error_Module__loggerDefined__C)
                  0001717e    00000002     bluetooth_pem4f.oem4f (.const:xdc_runtime_Error_maxDepth__C)
                  00017180    00000002     bluetooth_pem4f.oem4f (.const:xdc_runtime_Memory_Module__id__C)
                  00017182    00000002     bluetooth_pem4f.oem4f (.const:xdc_runtime_SysMin_flushAtExit__C)
                  00017184    00000002     bluetooth_pem4f.oem4f (.const:xdc_runtime_Text_charCnt__C)
                  00017186    00000002     bluetooth_pem4f.oem4f (.const:xdc_runtime_Text_isLoaded__C)
                  00017188    00000002     bluetooth_pem4f.oem4f (.const:xdc_runtime_Text_registryModsLastId__C)
                  0001718a    00000002     bluetooth_pem4f.oem4f (.const:xdc_runtime_Text_unnamedModsLastId__C)
                  0001718c    00000001     bluetooth_pem4f.oem4f (.const:xdc_runtime_Error_policy__C)

.cinit     0    00017190    00000468     
                  00017190    00000432     (.cinit..data.load) [load image, compression = lzss]
                  000175c2    00000002     --HOLE-- [fill = 0]
                  000175c4    0000000c     (__TI_handler_table)
                  000175d0    00000008     (.cinit..bss.load) [load image, compression = zero_init]
                  000175d8    00000008     (.cinit..vecs.load) [load image, compression = zero_init]
                  000175e0    00000018     (__TI_cinit_table)

.init_array 
*          0    00000000    00000000     UNINITIALIZED

.resetVecs 
*          0    00000000    0000003c     
                  00000000    0000003c     bluetooth_pem4f.oem4f (.resetVecs)

.bss       0    20000380    00019f5c     UNINITIALIZED
                  20000380    0000c918     bluetooth_pem4f.oem4f (.bss:NDK_MMBUFFER)
                  2000cc98    00008000     (.common:ti_sysbios_heaps_HeapMem_Instance_State_0_buf__A)
                  20014c98    00000068     stk.aem4f : ip.oem4f (.bss:ips)
                  20014d00    00003ef8     bluetooth_pem4f.oem4f (.bss:NDK_PACKETMEM)
                  20018bf8    00000800     bluetooth_pem4f.oem4f (.bss:taskStackSection)
                  200193f8    00000360     (.common:ti_sysbios_family_arm_m3_Hwi_dispatchTable)
                  20019758    00000120     rtsv7M4_T_le_v4SPD16_eabi.lib : trgmsg.c.obj (.bss:_CIOBUF_)
                  20019878    00000100     stk.aem4f : igmp.oem4f (.bss:igmp)
                  20019978    000000cc     (.common:uartTivaObjects)
                  20019a44    000000b8               : tcp.oem4f (.bss:tcps)
                  20019afc    000000b4     netctrl_min_ipv4.aem4f : netsrv.oem4f (.bss:ipcfgcopy)
                  20019bb0    00000090     drivers_tivaware.aem4f : EMACSnow.oem4f (.bss:g_pRxDescriptors)
                  20019c40    00000090                            : EMACSnow.oem4f (.bss:g_pTxDescriptors)
                  20019cd0    00000090                            : GPIOTiva.oem4f (.bss:gpioCallbackInfo)
                  20019d60    00000080     (.common:xdc_runtime_SysMin_Module_State_0_outbuf__A)
                  20019de0    00000070     (.common:ti_sysbios_knl_Mailbox_Instance_State_0_allocBuf__A)
                  20019e50    00000070     (.common:ti_sysbios_knl_Mailbox_Instance_State_1_allocBuf__A)
                  20019ec0    00000064     stk.aem4f : nimu.oem4f (.bss:nimu_mcb)
                  20019f24    00000064     (.common:dummy)
                  20019f88    00000064     (.common:input)
                  20019fec    0000004c               : icmp.oem4f (.bss:_ICMPIn)
                  2001a038    0000004c               : icmp.oem4f (.bss:_ICMPOut)
                  2001a084    00000040     drivers_tivaware.aem4f : EMACSnow.oem4f (.bss:EMACSnow_private)
                  2001a0c4    00000028     stk.aem4f : vlan.oem4f (.bss:vlan_mcb)
                  2001a0ec    00000024     netctrl_min_ipv4.aem4f : netsrv.oem4f (.bss:oscfgcopy)
                  2001a110    00000024     stk.aem4f : udp.oem4f (.bss:udps)
                  2001a134    00000020     (.common:uartTivaRingBuffer)
                  2001a154    0000001c     (.common:BlockCount)
                  2001a170    0000001c     (.common:BlockMax)
                  2001a18c    0000001c     (.common:PageCount)
                  2001a1a8    0000001c     (.common:PageMax)
                  2001a1c4    00000018     (.common:stkEvent)
                  2001a1dc    00000014     (.common:pfnHook)
                  2001a1f0    00000010     (.common:igmpCount)
                  2001a200    00000010     (.common:raweths)
                  2001a210    00000010     (.common:raws)
                  2001a220    0000000c     bluetooth.obj (.bss)
                  2001a22c    0000000c     (.common:PBMQ_free)
                  2001a238    0000000c     (.common:tpseudo)
                  2001a244    0000000c     (.common:upseudo)
                  2001a250    00000008     (.common:emacObjects)
                  2001a258    00000008     (.common:parmbuf)
                  2001a260    00000004     (.common:IPCache)
                  2001a264    00000004     (.common:IPTrialAddress)
                  2001a268    00000004     (.common:LastCLKTime)
                  2001a26c    00000004     (.common:LastCLKValid)
                  2001a270    00000004     (.common:NetHaltFlag)
                  2001a274    00000004     (.common:NetReturnCode)
                  2001a278    00000004     (.common:TimeMS)
                  2001a27c    00000004     (.common:TimeS)
                  2001a280    00000004     (.common:TimeStart)
                  2001a284    00000004     (.common:_IGMPInDiscard)
                  2001a288    00000004     (.common:_IGMPInQuery)
                  2001a28c    00000004     (.common:_IGMPInQueryGroup)
                  2001a290    00000004     (.common:_IGMPInResponse)
                  2001a294    00000004     (.common:_IGMPOutResponse)
                  2001a298    00000004     (.common:allSeconds)
                  2001a29c    00000004     (.common:day)
                  2001a2a0    00000004     (.common:g_ulStatus)
                  2001a2a4    00000004     (.common:gpioInterruptVectors)
                  2001a2a8    00000004     (.common:hEvent)
                  2001a2ac    00000004     (.common:hTimer$1)
                  2001a2b0    00000004     (.common:hTimer$1)
                  2001a2b4    00000004     (.common:hour)
                  2001a2b8    00000004     (.common:minute)
                  2001a2bc    00000004     (.common:month)
                  2001a2c0    00000004     (.common:raweth_pcb)
                  2001a2c4    00000004     (.common:receivedSecond)
                  2001a2c8    00000004     (.common:second)
                  2001a2cc    00000004     (.common:ti_sysbios_knl_Task_Instance_State_0_hookEnv__A)
                  2001a2d0    00000004     (.common:ti_sysbios_knl_Task_Instance_State_1_hookEnv__A)
                  2001a2d4    00000004     (.common:ts)
                  2001a2d8    00000004     (.common:year)

.data      0    2001a2dc    00000a14     UNINITIALIZED
                  2001a2dc    000000b4     stk.aem4f : exec.oem4f (.data:_ipcfg)
                  2001a390    000000a0     bluetooth_pem4f.oem4f (.data:ti_sysbios_knl_Mailbox_Object__table__V)
                  2001a430    00000098     bluetooth_pem4f.oem4f (.data:ti_sysbios_knl_Task_Object__table__V)
                  2001a4c8    00000080     bluetooth_pem4f.oem4f (.data:ti_sysbios_family_arm_lm4_Timer_Object__table__V)
                  2001a548    00000080     bluetooth_pem4f.oem4f (.data:ti_sysbios_knl_Swi_Module_State_0_readyQ__A)
                  2001a5c8    00000080     bluetooth_pem4f.oem4f (.data:ti_sysbios_knl_Task_Module_State_0_readyQ__A)
                  2001a648    00000060     bluetooth_pem4f.oem4f (.data:ti_sysbios_knl_Swi_Object__table__V)
                  2001a6a8    0000004d     nettool_ipv4.aem4f : dhcptags.oem4f (.data:DHCPTypeCode)
                  2001a6f5    00000001     bluetooth.obj (.data)
                  2001a6f6    00000002     bluetooth_pem4f.oem4f (.data:ti_sysbios_family_arm_m3_Hwi_Module_State_0_excActive__A)
                  2001a6f8    00000044     bluetooth_pem4f.oem4f (.data:ti_sysbios_knl_Task_Module__state__V)
                  2001a73c    00000040     netctrl_min_ipv4.aem4f : netsrv.oem4f (.data:CloseOrder)
                  2001a77c    00000040                            : netsrv.oem4f (.data:OpenOrder)
                  2001a7bc    00000040     bluetooth_pem4f.oem4f (.data:ti_sysbios_family_arm_lm4_Timer_Module_State_0_device__A)
                  2001a7fc    0000003c     bluetooth_pem4f.oem4f (.data:ti_sysbios_knl_Semaphore_Object__table__V)
                  2001a838    00000038     bluetooth_pem4f.oem4f (.data:ti_sysbios_gates_GateMutex_Object__table__V)
                  2001a870    00000034     stk.aem4f : tcptime.oem4f (.data:tcp_backoff)
                  2001a8a4    00000034     bluetooth_pem4f.oem4f (.data:ti_sysbios_family_arm_m3_Hwi_Module__state__V)
                  2001a8d8    00000032     drivers_tivaware.aem4f : EMACSnow.oem4f (.data)
                  2001a90a    00000002     bluetooth_pem4f.oem4f (.data:xdc_runtime_Error_Module__state__V)
                  2001a90c    00000030     stk.aem4f : exec.oem4f (.data:tasks)
                  2001a93c    00000030     bluetooth_pem4f.oem4f (.data:ti_sysbios_family_arm_m3_Hwi_Object__table__V)
                  2001a96c    0000002c     bluetooth_pem4f.oem4f (.data:ti_sysbios_knl_Clock_Module__state__V)
                  2001a998    00000028     stk.aem4f : rtc.oem4f (.data)
                  2001a9c0    00000024     os.aem4f : ossys.oem4f (.data:_oscfg)
                  2001a9e4    00000024     rtsv7M4_T_le_v4SPD16_eabi.lib : localtim.c.obj (.data:local_tm)
                  2001aa08    00000024     os.aem4f : mem.oem4f (.data)
                  2001aa2c    00000024     bluetooth_pem4f.oem4f (.data:ti_sysbios_BIOS_Module__state__V)
                  2001aa50    00000020     bluetooth_pem4f.oem4f (.data:ti_sysbios_family_arm_lm4_Timer_Module_State_0_handles__A)
                  2001aa70    0000001c     netctrl_min_ipv4.aem4f : netctrl.oem4f (.data)
                  2001aa8c    0000001c     bluetooth_pem4f.oem4f (.data:ti_ndk_config_Global_Id2Size)
                  2001aaa8    0000001c     bluetooth_pem4f.oem4f (.data:ti_sysbios_knl_Swi_Module__state__V)
                  2001aac4    00000018     bluetooth_pem4f.oem4f (.data:TaskName)
                  2001aadc    00000018     os.aem4f : task.oem4f (.data)
                  2001aaf4    00000018     stk.aem4f : sockpcb.oem4f (.data)
                  2001ab0c    00000018     bluetooth_pem4f.oem4f (.data:ti_sysbios_heaps_HeapMem_Object__table__V)
                  2001ab24    00000018     bluetooth_pem4f.oem4f (.data:ti_sysbios_knl_Event_Object__table__V)
                  2001ab3c    00000014     bluetooth_pem4f.oem4f (.data:ReportStr)
                  2001ab50    00000014     bluetooth_pem4f.oem4f (.data:StatusStr)
                  2001ab64    00000014     stk.aem4f : rtable.oem4f (.data)
                  2001ab78    00000010     rtsv7M4_T_le_v4SPD16_eabi.lib : tmzone.c.obj (.data:_tz)
                  2001ab88    00000010     EK_TM4C1294XL.obj (.data:gpioPinConfigs)
                  2001ab98    00000010     stk.aem4f : igmp.oem4f (.data)
                  2001aba8    0000000c     bluetooth_pem4f.oem4f (.data:ti_sysbios_family_arm_lm4_Timer_Module__state__V)
                  2001abb4    0000000c     bluetooth_pem4f.oem4f (.data:xdc_runtime_SysMin_Module__state__V)
                  2001abc0    0000000b     stk.aem4f : tcpout.oem4f (.data)
                  2001abcb    00000001     --HOLE--
                  2001abcc    00000008     rtsv7M4_T_le_v4SPD16_eabi.lib : _lock.c.obj (.data:$O1$$)
                  2001abd4    00000008     EK_TM4C1294XL.obj (.data:NIMUDeviceTable)
                  2001abdc    00000008     bluetooth_pem4f.oem4f (.data)
                  2001abe4    00000008     EK_TM4C1294XL.obj (.data:gpioCallbackFunctions)
                  2001abec    00000008     netctrl_min_ipv4.aem4f : netsrv.oem4f (.data)
                  2001abf4    00000008     stk.aem4f : exec.oem4f (.data)
                  2001abfc    00000008               : icmp.oem4f (.data)
                  2001ac04    00000008               : ip.oem4f (.data)
                  2001ac0c    00000008               : ipin.oem4f (.data)
                  2001ac14    00000008               : lli.oem4f (.data)
                  2001ac1c    00000008               : tcp.oem4f (.data)
                  2001ac24    00000008               : timer.oem4f (.data)
                  2001ac2c    00000008     bluetooth_pem4f.oem4f (.data:ti_sysbios_family_arm_m3_Hwi_Module__root__V)
                  2001ac34    00000008     bluetooth_pem4f.oem4f (.data:ti_sysbios_gates_GateHwi_Module__root__V)
                  2001ac3c    00000008     bluetooth_pem4f.oem4f (.data:ti_sysbios_gates_GateMutex_Module__root__V)
                  2001ac44    00000008     bluetooth_pem4f.oem4f (.data:ti_sysbios_hal_Timer_Object__table__V)
                  2001ac4c    00000008     bluetooth_pem4f.oem4f (.data:ti_sysbios_heaps_HeapMem_Module__root__V)
                  2001ac54    00000008     bluetooth_pem4f.oem4f (.data:ti_sysbios_knl_Clock_Module__root__V)
                  2001ac5c    00000008     bluetooth_pem4f.oem4f (.data:ti_sysbios_knl_Queue_Module__root__V)
                  2001ac64    00000008     bluetooth_pem4f.oem4f (.data:ti_sysbios_knl_Semaphore_Module__root__V)
                  2001ac6c    00000008     bluetooth_pem4f.oem4f (.data:ti_sysbios_knl_Swi_Module__root__V)
                  2001ac74    00000008     bluetooth_pem4f.oem4f (.data:ti_sysbios_knl_Task_Module__root__V)
                  2001ac7c    00000008     bluetooth_pem4f.oem4f (.data:xdc_runtime_Registry_Module__state__V)
                  2001ac84    00000008     bluetooth_pem4f.oem4f (.data:xdc_runtime_Startup_Module__state__V)
                  2001ac8c    00000008     bluetooth_pem4f.oem4f (.data:xdc_runtime_System_Module_State_0_atexitHandlers__A)
                  2001ac94    00000008     bluetooth_pem4f.oem4f (.data:xdc_runtime_System_Module__state__V)
                  2001ac9c    00000006     EK_TM4C1294XL.obj (.data:macAddress)
                  2001aca2    00000006     stk.aem4f : lliout.oem4f (.data)
                  2001aca8    00000005     drivers_tivaware.aem4f : GPIOTiva.oem4f (.data)
                  2001acad    00000003     --HOLE--
                  2001acb0    00000004                            : EMAC.oem4f (.data)
                  2001acb4    00000004                            : UART.oem4f (.data)
                  2001acb8    00000004     hal_timer_bios.aem4f : lltimer.oem4f (.data)
                  2001acbc    00000004     nettool_ipv4.aem4f : config.oem4f (.data)
                  2001acc0    00000004     rtsv7M4_T_le_v4SPD16_eabi.lib : errno.c.obj (.data)
                  2001acc4    00000004                                   : stkdepth_vars.c.obj (.data)
                  2001acc8    00000004     stk.aem4f : bind.oem4f (.data)
                  2001accc    00000004               : ipfrag.oem4f (.data)
                  2001acd0    00000004               : lliin.oem4f (.data)
                  2001acd4    00000004               : node.oem4f (.data)
                  2001acd8    00000004               : pbm.oem4f (.data)
                  2001acdc    00000004     bluetooth_pem4f.oem4f (.data:ti_sysbios_family_arm_m3_Hwi_Module_State_0_excContext__A)
                  2001ace0    00000004     bluetooth_pem4f.oem4f (.data:ti_sysbios_family_arm_m3_Hwi_Module_State_0_excStack__A)
                  2001ace4    00000004     bluetooth_pem4f.oem4f (.data:ti_sysbios_gates_GateHwi_Object__table__V)
                  2001ace8    00000004     bluetooth_pem4f.oem4f (.data:ti_sysbios_knl_Task_Module_State_0_idleTask__A)
                  2001acec    00000004     bluetooth_pem4f.oem4f (.data:xdc_runtime_Memory_Module__state__V)

.stack     0    2001acf0    00000800     UNINITIALIZED
                  2001acf0    00000800     --HOLE--

.bootVecs 
*          0    00000000    00000008     DSECT
                  00000000    00000008     boot.aem4f : boot.oem4f (.bootVecs)

.vecs      0    20000000    00000360     UNINITIALIZED
                  20000000    00000360     bluetooth_pem4f.oem4f (.vecs)

xdc.meta   0    00000000    000000f2     COPY SECTION
                  00000000    000000f2     bluetooth_pem4f.oem4f (xdc.meta)

__llvm_prf_cnts 
*          0    20000000    00000000     UNINITIALIZED

MODULE SUMMARY

       Module                       code    ro data   rw data
       ------                       ----    -------   -------
    .\
       bluetooth.obj                2444    0         249    
       EK_TM4C1294XL.obj            536     108       282    
    +--+----------------------------+-------+---------+---------+
       Total:                       2980    108       531    
                                                             
    C:\Users\CASPER-PC\Desktop\bluetoothProject\bluetooth\Debug\configPkg\package\cfg\
       bluetooth_pem4f.oem4f        3075    8316      106092 
    +--+----------------------------+-------+---------+---------+
       Total:                       3075    8316      106092 
                                                             
    C:/ti/tirtos_tivac_2_16_00_08/products/TivaWare_C_Series-2.1.1.71b/driverlib/ccs/Debug/driverlib.lib
       emac.obj                     756     24        0      
       gpio.obj                     566     144       0      
       uart.obj                     226     0         0      
       sysctl.obj                   194     0         0      
       flash.obj                    20      0         0      
    +--+----------------------------+-------+---------+---------+
       Total:                       1762    168       0      
                                                             
    C:/ti/tirtos_tivac_2_16_00_08/products/tidrivers_tivac_2_16_00_08/packages/ti/drivers/lib/drivers_tivaware.aem4f
       EMACSnow.oem4f               2006    8         406    
       UARTTiva.oem4f               2262    116       0      
       GPIOTiva.oem4f               764     156       153    
       UART.oem4f                   138     36        4      
       RingBuf.oem4f                164     0         0      
       EMAC.oem4f                   52      0         4      
    +--+----------------------------+-------+---------+---------+
       Total:                       5386    316       567    
                                                             
    C:\Users\CASPER-PC\Desktop\bluetoothProject\bluetooth\src\sysbios\sysbios.aem4f
       BIOS.obj                     11094   0         0      
       m3_Hwi_asm.obj               314     0         0      
       m3_TaskSupport_asm.obj       180     0         0      
       m3_Hwi_asm_switch.obj        118     0         0      
    +--+----------------------------+-------+---------+---------+
       Total:                       11706   0         0      
                                                             
    C:\ti\tirtos_tivac_2_16_00_08\products\bios_6_45_01_29\packages\ti\catalog\arm\cortexm4\tiva\ce\lib\Boot.aem4f
       Boot_sysctl.oem4f            628     452       0      
       Boot.oem4f                   152     0         0      
    +--+----------------------------+-------+---------+---------+
       Total:                       780     452       0      
                                                             
    C:\ti\tirtos_tivac_2_16_00_08\products\bios_6_45_01_29\packages\ti\targets\arm\rtsarm\lib\auto_init.aem4f
       auto_init.oem4f              160     0         0      
    +--+----------------------------+-------+---------+---------+
       Total:                       160     0         0      
                                                             
    C:\ti\tirtos_tivac_2_16_00_08\products\bios_6_45_01_29\packages\ti\targets\arm\rtsarm\lib\boot.aem4f
       boot.oem4f                   88      0         0      
    +--+----------------------------+-------+---------+---------+
       Total:                       88      0         0      
                                                             
    C:\ti\tirtos_tivac_2_16_00_08\products\bios_6_45_01_29\packages\ti\targets\arm\rtsarm\lib\ti.targets.arm.rtsarm.aem4f
       System.oem4f                 1277    0         0      
       Text.oem4f                   672     0         0      
       Error.oem4f                  528     0         0      
       Core-mem.oem4f               358     0         0      
       Startup.oem4f                328     0         0      
       SysMin.oem4f                 248     0         0      
       Core-smem.oem4f              204     0         0      
       Memory.oem4f                 176     0         0      
       Assert.oem4f                 84      0         0      
       Core-params.oem4f            70      0         0      
       Core-label.oem4f             52      0         0      
       Registry.oem4f               32      0         0      
       Gate.oem4f                   28      0         0      
       xdc_noinit.oem4f             6       0         0      
    +--+----------------------------+-------+---------+---------+
       Total:                       4063    0         0      
                                                             
    C:\ti\tirtos_tivac_2_16_00_08\products\ndk_2_25_00_09\packages\ti\ndk\hal\ser_stub\lib\hal_ser_stub.aem4f
       llserstb.oem4f               10      0         0      
    +--+----------------------------+-------+---------+---------+
       Total:                       10      0         0      
                                                             
    C:\ti\tirtos_tivac_2_16_00_08\products\ndk_2_25_00_09\packages\ti\ndk\hal\timer_bios\lib\hal_timer_bios.aem4f
       lltimer.oem4f                252     0         28     
    +--+----------------------------+-------+---------+---------+
       Total:                       252     0         28     
                                                             
    C:\ti\tirtos_tivac_2_16_00_08\products\ndk_2_25_00_09\packages\ti\ndk\hal\userled_stub\lib\hal_userled_stub.aem4f
       llled.oem4f                  6       0         0      
    +--+----------------------------+-------+---------+---------+
       Total:                       6       0         0      
                                                             
    C:\ti\tirtos_tivac_2_16_00_08\products\ndk_2_25_00_09\packages\ti\ndk\netctrl\lib\netctrl_min_ipv4.aem4f
       netsrv.oem4f                 1122    0         352    
       netctrl.oem4f                884     0         60     
    +--+----------------------------+-------+---------+---------+
       Total:                       2006    0         412    
                                                             
    C:\ti\tirtos_tivac_2_16_00_08\products\ndk_2_25_00_09\packages\ti\ndk\nettools\lib\nettool_ipv4.aem4f
       config.oem4f                 1760    0         4      
       dhcpsm.oem4f                 1028    0         0      
       dhcpbild.oem4f               508     0         0      
       dhcppkt.oem4f                462     0         0      
       dhcpmain.oem4f               406     0         0      
       inetaddr.oem4f               382     0         0      
       dhcptags.oem4f               264     0         77     
       dhcpsock.oem4f               332     0         0      
       ipaddr.oem4f                 190     0         4      
    +--+----------------------------+-------+---------+---------+
       Total:                       5332    0         85     
                                                             
    C:\ti\tirtos_tivac_2_16_00_08\products\ndk_2_25_00_09\packages\ti\ndk\os\lib\os.aem4f
       mem.oem4f                    1312    0         148    
       task.oem4f                   1054    0         24     
       semaphore.oem4f              226     0         0      
       ossys.oem4f                  140     0         36     
    +--+----------------------------+-------+---------+---------+
       Total:                       2732    0         208    
                                                             
    C:\ti\tirtos_tivac_2_16_00_08\products\ndk_2_25_00_09\packages\ti\ndk\stack\lib\stk.aem4f
       tcpin.oem4f                  3312    0         0      
       sock.oem4f                   2736    0         0      
       tcpout.oem4f                 2608    0         11     
       igmp.oem4f                   1584    0         308    
       nimu.oem4f                   1549    0         100    
       sockpcb.oem4f                1422    0         24     
       rtable.oem4f                 1138    0         24     
       node.oem4f                   1079    0         4      
       tcpprot.oem4f                1082    0         0      
       ipout.oem4f                  1032    0         0      
       udp.oem4f                    968     0         48     
       ipin.oem4f                   998     0         8      
       tcptime.oem4f                821     0         52     
       sb.oem4f                     826     0         0      
       icmpin.oem4f                 756     0         0      
       icmp.oem4f                   580     0         160    
       socket.oem4f                 730     0         0      
       ipfrag.oem4f                 712     0         4      
       rtc.oem4f                    592     62        60     
       sockint.oem4f                704     0         0      
       route.oem4f                  702     0         0      
       lliout.oem4f                 672     0         6      
       tcp.oem4f                    472     0         204    
       lli.oem4f                    652     0         8      
       bind.oem4f                   650     0         4      
       lliin.oem4f                  592     0         4      
       pbm.oem4f                    574     0         16     
       exec.oem4f                   302     0         236    
       rawethsock.oem4f             536     0         0      
       ip.oem4f                     378     0         120    
       vlan.oem4f                   396     0         40     
       raw.oem4f                    400     0         16     
       pipe.oem4f                   410     0         0      
       file.oem4f                   398     0         0      
       fileuser.oem4f               312     0         0      
       timer.oem4f                  258     0         8      
       raweth.oem4f                 224     0         16     
       rawethsock_pcb.oem4f         236     0         4      
       sockprot.oem4f               98      84        0      
       listlib.oem4f                110     0         0      
       rawethsock_prot.oem4f        8       0         0      
       nat.oem4f                    2       0         0      
    +--+----------------------------+-------+---------+---------+
       Total:                       33611   146       1485   
                                                             
    D:\CCS10\ccs\tools\compiler\ti-cgt-arm_20.2.1.LTS\lib\rtsv7M4_T_le_v4SPD16_eabi.lib
       _printfi.c.obj               4851    0         0      
       strftime.c.obj               1124    250       0      
       mktime.c.obj                 672     96        0      
       fd_add_t2.asm.obj            438     0         0      
       trgmsg.c.obj                 108     0         288    
       localtim.c.obj               308     0         36     
       fd_div_t2.asm.obj            310     0         0      
       s_scalbn.c.obj               272     0         0      
       fd_cmp_t2.asm.obj            268     0         0      
       ctype.c.obj                  0       257       0      
       fd_mul_t2.asm.obj            252     0         0      
       memcpy_t2.asm.obj            156     0         0      
       ull_div_t2.asm.obj           150     0         0      
       snprintf.c.obj               148     0         0      
       memset_t2.asm.obj            122     0         0      
       ll_div_t2.asm.obj            110     0         0      
       copy_decompress_lzss.c.obj   104     0         0      
       s_frexp.c.obj                100     0         0      
       sprintf.c.obj                98      0         0      
       hostwrite.c.obj              88      0         0      
       _ltoa.c.obj                  84      0         0      
       atoi.c.obj                   76      0         0      
       cpy_tbl.c.obj                76      0         0      
       fd_toi_t2.asm.obj            72      0         0      
       u_divt2.asm.obj              64      0         0      
       i_tofd_t2.asm.obj            46      0         0      
       _lock.c.obj                  26      0         8      
       strcat.c.obj                 30      0         0      
       memccpy.c.obj                28      0         0      
       s_copysign.c.obj             26      0         0      
       args_main.c.obj              24      0         0      
       strcmp.c.obj                 24      0         0      
       strchr.c.obj                 22      0         0      
       strcpy.c.obj                 20      0         0      
       strlen.c.obj                 20      0         0      
       wcslen.c.obj                 18      0         0      
       tmzone.c.obj                 0       0         16     
       copy_decompress_none.c.obj   14      0         0      
       copy_zero_init.c.obj         12      0         0      
       errno.c.obj                  8       0         4      
       hostopen.c.obj               0       0         8      
       exit.c.obj                   4       0         0      
       stkdepth_vars.c.obj          0       0         4      
       div0.asm.obj                 2       0         0      
    +--+----------------------------+-------+---------+---------+
       Total:                       10375   603       364    
                                                             
       Stack:                       0       0         2048   
       Linker Generated:            0       1126      0      
    +--+----------------------------+-------+---------+---------+
       Grand Total:                 84324   11235     111820 


LINKER GENERATED COPY TABLES

__TI_cinit_table @ 000175e0 records: 3, size/record: 8, table size: 24
	.data: load addr=00017190, load size=00000432 bytes, run addr=2001a2dc, run size=00000a14 bytes, compression=lzss
	.bss: load addr=000175d0, load size=00000008 bytes, run addr=20000380, run size=00019f5c bytes, compression=zero_init
	.vecs: load addr=000175d8, load size=00000008 bytes, run addr=20000000, run size=00000360 bytes, compression=zero_init


LINKER GENERATED HANDLER TABLE

__TI_handler_table @ 000175c4 records: 3, size/record: 4, table size: 12
	index: 0, handler: __TI_decompress_lzss
	index: 1, handler: __TI_decompress_none
	index: 2, handler: __TI_zero_init


GLOBAL SYMBOLS: SORTED ALPHABETICALLY BY Name 

address   name                                                                 
-------   ----                                                                 
000134ad  BindFindByHost                                                       
00013ba1  BindFindByIF                                                         
000131bd  BindFindByNet                                                        
0000fd2d  BindFree                                                             
00014731  BindGetFirst                                                         
00002415  BindGetIF                                                            
000134d1  BindGetIFByDBCast                                                    
00013dfd  BindGetIP                                                            
00005bf5  BindGetNext                                                          
00014549  BindIF2IPHost                                                        
00014559  BindIFNet2IPHost                                                     
000142b9  BindIPHost2IF                                                        
00006af9  BindNew                                                              
2001a154  BlockCount                                                           
2001a170  BlockMax                                                             
0000f21d  C$$EXIT                                                              
0001217b  C$$IO$$                                                              
00006d7d  CfgAddEntry                                                          
00010099  CfgEntryDeRef                                                        
00011c2f  CfgEntryGetData                                                      
000133c9  CfgEntryInfo                                                         
00013819  CfgEntryRef                                                          
0000c425  CfgExecute                                                           
0000eefd  CfgFree                                                              
0000d025  CfgGetEntry                                                          
0000f3b1  CfgGetEntryCnt                                                       
000127cd  CfgGetImmediate                                                      
0000d7c1  CfgGetNextEntry                                                      
00010c33  CfgNew                                                               
0000c139  CfgRemoveEntry                                                       
0001473d  CfgSetDefault                                                        
0000f829  CfgSetExecuteOrder                                                   
0001237d  CfgSetService                                                        
000169ec  Code2Err                                                             
00011ab9  DHCPClose                                                            
00006475  DHCPOpen                                                             
0000e8b9  DbgPrintf                                                            
0000773d  EK_TM4C1294XL_initEMAC                                               
00014951  EK_TM4C1294XL_initGPIO                                               
0000af15  EK_TM4C1294XL_initGeneral                                            
00012e25  EK_TM4C1294XL_initUART                                               
00012a03  EMACAddrSet                                                          
00011fc5  EMACConfigGet                                                        
000123b1  EMACConfigSet                                                        
00014569  EMACFrameFilterSet                                                   
0000dd11  EMACInit                                                             
000123e5  EMACIntClear                                                         
00011c6b  EMACIntDisable                                                       
00011f4d  EMACIntEnable                                                        
00012e51  EMACIntStatus                                                        
0000fddd  EMACPHYConfigSet                                                     
000133ef  EMACPHYRead                                                          
00013415  EMACPHYWrite                                                         
00014209  EMACReset                                                            
00012993  EMACRxDMADescriptorListSet                                           
0001421f  EMACRxEnable                                                         
0000a855  EMACSnow_InitDMADescriptors                                          
00004d55  EMACSnow_NIMUInit                                                    
00012419  EMACSnow_emacPoll                                                    
00013f51  EMACSnow_emacSend                                                    
000087cd  EMACSnow_emacStart                                                   
0000d441  EMACSnow_emacStop                                                    
000146a9  EMACSnow_emacioctl                                                   
00016fe4  EMACSnow_fxnTable                                                    
0000d83d  EMACSnow_hwiIntFxn                                                   
00014749  EMACSnow_init                                                        
0001244d  EMACSnow_isLinkUp                                                    
000134f5  EMACSnow_pkt_service                                                 
0000d0a9  EMACSnow_processPhyInterrupt                                         
000129cb  EMACTxDMADescriptorListSet                                           
00014959  EMACTxDMAPollDemand                                                  
00014235  EMACTxEnable                                                         
00016ed0  EMAC_config                                                          
00012481  EMAC_init                                                            
000124b5  ExecClose                                                            
00014579  ExecHRef                                                             
000146b7  ExecLowResource                                                      
0000bbd5  ExecOpen                                                             
0001353d  ExecTimer                                                            
00012e7d  FdSignalEvent                                                        
0000f411  FdWaitEvent                                                          
000142cd  FlashUserGet                                                         
000130e9  GPIODirModeSet                                                       
000144e3  GPIOIntClear                                                         
000146c5  GPIOIntStatus                                                        
0000ffed  GPIOIntTypeSet                                                       
0000760d  GPIOPadConfigSet                                                     
00010c7d  GPIOPinConfigure                                                     
00014475  GPIOPinTypeEthernetLED                                               
00014487  GPIOPinTypeUART                                                      
000144fb  GPIOPinWrite                                                         
00016f90  GPIOTiva_config                                                      
0000ef61  GPIO_hwiIntFxn                                                       
0000c789  GPIO_init                                                            
0001048d  GPIO_setCallback                                                     
000065cd  GPIO_setConfig                                                       
000104dd  GPIO_write                                                           
0000fe35  HOSTwrite                                                            
000112e9  ICMPChecksum                                                         
000073a5  ICMPGenPacket                                                        
00003d01  ICMPInput                                                            
0000a2c9  ICMPSendRtAdv                                                        
00005759  IGMPInput                                                            
0000d935  IGMPJoin                                                             
000100ed  IGMPLeave                                                            
0000e059  IGMPLeaveHostGroup                                                   
0000c4b5  IGMPMsg                                                              
00012ea9  IGMPTestGroup                                                        
00012311  IPChecksum                                                           
0000b8b9  IPGetRoute                                                           
0000c815  IPMsg                                                                
00003ab5  IPReasm                                                              
0001132d  IPReasmFree                                                          
00011ffd  IPReasmTimeout                                                       
00013f69  IPRtChange                                                           
00002c51  IPRxPacket                                                           
00002849  IPTxPacket                                                           
000016f7  LED_TOGGLE                                                           
000131e5  LLIFree                                                              
000096a5  LLIGenArpPacket                                                      
00011371  LLIGetValidTime                                                      
00010cc5  LLIMsg                                                               
0000d541  LLINew                                                               
00005275  LLIRxPacket                                                          
000050c5  LLITxIpPacket                                                        
000117f5  LLIValidateRoute                                                     
000138a5  NC_BootComplete                                                      
00014589  NC_IPUpdate                                                          
00005a81  NC_NetStart                                                          
000142e1  NC_NetStop                                                           
0001320d  NC_SystemClose                                                       
0000bda9  NC_SystemOpen                                                        
0001052d  NDK_bind                                                             
0001057d  NDK_connect                                                          
00012ed5  NDK_hookCreate                                                       
000142f5  NDK_hookExit                                                         
00014755  NDK_hookInit                                                         
0000e5b1  NDK_recv                                                             
0000e30f  NDK_send                                                             
0000dd89  NDK_sendto                                                           
0000d9b1  NDK_setsockopt                                                       
0000ecf3  NDK_socket                                                           
00013bd9  NDK_sprintf                                                          
0000671d  NDK_vsprintf                                                         
0000ba99  NIMUAddEthernetHeader                                                
00013bf5  NIMUAddHeader                                                        
00013235  NIMUCreatePacket                                                     
2001abd4  NIMUDeviceTable                                                      
00013561  NIMUFindByIndex                                                      
000124e9  NIMUFindByName                                                       
00014599  NIMUGetRsvdSizeInfo                                                  
0001251d  NIMUInit                                                             
00008171  NIMUIoctl                                                            
0001325d  NIMUPacketService                                                    
00012f2d  NIMUPacketServiceCheck                                               
0000a1f5  NIMUReceivePacket                                                    
0000da2d  NIMURegister                                                         
00014309  NIMUSendPacket                                                       
00014761  NIMUSetRsvdSizeInfo                                                  
0000e0cd  NIMUShutdown                                                         
0000f471  NIMUUnregister                                                       
0000d5c1  NS_BootTask                                                          
00012a65  NS_PreBoot                                                           
000050c3  NatMsg                                                               
00009dc9  NodeAdd                                                              
00010801  NodeDeRef                                                            
0000f4d1  NodeFind                                                             
00012035  NodeGetRt                                                            
000088d5  NodeSetRt                                                            
00008285  NodeTreeFree                                                         
0000e925  NodeTreeNew                                                          
00010d0d  NodeWalk                                                             
0001476d  NotifyLowResource                                                    
0001089d  NtAddNetwork                                                         
00011101  NtIfIdx2Ip                                                           
0001431d  NtRemoveNetwork                                                      
000149e9  OEMSysCritOff                                                        
00014829  OEMSysCritOn                                                         
00013113  PBMQ_deq                                                             
0000efc5  PBMQ_enq                                                             
2001a22c  PBMQ_free                                                            
0000d641  PBM_alloc                                                            
00014779  PBM_close                                                            
00011835  PBM_copy                                                             
0000daa9  PBM_free                                                             
0000ed5d  PBM_open                                                             
2001aa08  PITCount                                                             
2001aa10  PITHigh                                                              
2001aa0c  PITUsed                                                              
2001a18c  PageCount                                                            
2001a1a8  PageMax                                                              
00012f59  PipeClose                                                            
000090e1  PipeRecv                                                             
0000df69  PipeSend                                                             
00013585  RTCAddHook                                                           
0000f531  RTCMsg                                                               
000138e5  RTCRemoveHook                                                        
00005d6d  RTCReport                                                            
0000e141  RawEthRxPacket                                                       
0001343b  RawEthSockClose                                                      
0000a6c5  RawEthSockNew                                                        
00012551  RawEthSockNotify                                                     
00010141  RawEthSockPcbAttach                                                  
00013f81  RawEthSockPcbCleanup                                                 
00010d55  RawEthSockPcbDetach                                                  
000135a9  RawEthSockPcbFind                                                    
00014331  RawEthSockPcbInit                                                    
0000996d  RawEthSockPrAttach                                                   
0000ad95  RawEthSockPrDetach                                                   
00011147  RawEthSockSend                                                       
0000b40f  RawEthSockSet                                                        
0000e991  RawEthTxPacket                                                       
00008395  RawInput                                                             
0000d6c1  RawOutput                                                            
00014499  RingBuf_construct                                                    
00011875  RingBuf_get                                                          
00014785  RingBuf_peek                                                         
0001118d  RingBuf_put                                                          
000113b5  RouteMsg                                                             
000086c1  RtCreate                                                             
000127ff  RtDeRef                                                              
000085b5  RtFind                                                               
0000fb69  RtRedirect                                                           
0000f6b1  RtRemove                                                             
00012831  RtSetFailure                                                         
000135f1  RtSetTimeout                                                         
00011ce5  RtWalkBegin                                                          
000113f9  RtWalkEnd                                                            
0000e621  RtWalkNext                                                           
00012863  SBFlush                                                              
00012dc9  SBFree                                                               
0000f34d  SBNew                                                                
00005edd  SBRead                                                               
00012895  SBSetMax                                                             
00009b35  SBWrite                                                              
UNDEFED   SHT$$INIT_ARRAY$$Base                                                
UNDEFED   SHT$$INIT_ARRAY$$Limit                                               
0000fee5  SemCreate                                                            
0000e29d  SemCreateBinary                                                      
00014791  SemDelete                                                            
0000ae55  SemPend                                                              
0000b2a5  SemPost                                                              
0000b76d  SemReset                                                             
00012a95  SockBind                                                             
00010195  SockCleanPcb                                                         
00009795  SockClose                                                            
00006315  SockConnect                                                          
0000b6c5  SockCreatePacket                                                     
00010b9f  SockDisconnect                                                       
000128c7  SockIntAbort                                                         
000058f1  SockNew                                                              
00006eb9  SockNotify                                                           
00012f85  SockPcbAttach                                                        
0000a04d  SockPcbBind                                                          
00013615  SockPcbCleanup                                                       
0000e1b5  SockPcbConnect                                                       
0000ccf9  SockPcbCtlError                                                      
0001143d  SockPcbDetach                                                        
00007991  SockPcbResolve                                                       
00010d9d  SockPcbResolveChain                                                  
000118b5  SockPcbRtChange                                                      
000144ab  SockPrAttach                                                         
00012585  SockPrCtlError                                                       
00013c11  SockPrDetach                                                         
0000479d  SockRecv                                                             
00006ff5  SockSend                                                             
000035c1  SockSet                                                              
000144bd  SockSetOOBData                                                       
00013e17  SockSetOOBMark                                                       
0000e461  SockShutdown                                                         
0000f029  SockSpawnAbort                                                       
000108e9  SockValidateRoute                                                    
000149c1  SysCtlDelay                                                          
000125b9  SysCtlPeripheralEnable                                               
0001206d  SysCtlPeripheralReady                                                
0001061d  SysCtlPeripheralReset                                                
00014969  TaskBlock                                                            
00011b37  TaskCreate                                                           
00013c2d  TaskDestroy                                                          
0000ae59  TaskExit                                                             
000093c9  TaskGetEnv                                                           
0000c2f5  TaskSelf                                                             
00009885  TaskSetEnv                                                           
0000c38d  TaskSetPri                                                           
0000aaa1  TaskSleep                                                            
0000f591  TcpChecksum                                                          
000120a5  TcpClose                                                             
00010de5  TcpDrop                                                              
00007f41  TcpGenPacket                                                         
00000041  TcpInput                                                             
000016f9  TcpOutput                                                            
0000d12d  TcpPrAttach                                                          
00011d21  TcpPrConnect                                                         
000111d3  TcpPrCtlError                                                        
000103e9  TcpPrDetach                                                          
00011b75  TcpPrDisconnect                                                      
0000ec89  TcpPrInherit                                                         
000149c7  TcpPrRecv                                                            
000118f5  TcpPrSend                                                            
000116a9  TcpPrSendOOB                                                         
00009ea1  TcpPrSetOption                                                       
00011d5d  TcpSetPersist                                                        
00014071  TcpTimeoutAdd                                                        
00006c3d  TcpTimeoutCheck                                                      
0000b13d  TcpTimeoutKeep                                                       
000101e9  TcpTimeoutPersist                                                    
00013905  TcpTimeoutRemove                                                     
00009a55  TcpTimeoutRexmt                                                      
0000dfe1  TcpTimeoutSackRexmt                                                  
00013639  TcpTimeoutWait2                                                      
0000fbc3  TcpValidateMetrics                                                   
0000de01  TcpXmitTimer                                                         
00014345  TimerFree                                                            
000120dd  TimerHSTick                                                          
00010be9  TimerNew                                                             
000148ed  UARTCharGet                                                          
000146d3  UARTCharGetNonBlocking                                               
000148f7  UARTCharPut                                                          
000146e1  UARTCharPutNonBlocking                                               
000116eb  UARTConfigSetExpClk                                                  
00013c49  UARTDisable                                                          
00014359  UARTEnable                                                           
000149cd  UARTFIFOLevelSet                                                     
0001479d  UARTFlowControlSet                                                   
0000c665  UARTIntClear                                                         
00014901  UARTIntDisable                                                       
00014971  UARTIntEnable                                                        
0001490b  UARTIntStatus                                                        
000149d3  UARTRxErrorClear                                                     
00014979  UARTRxErrorGet                                                       
00010935  UARTTiva_close                                                       
0000c8a1  UARTTiva_control                                                     
00016c38  UARTTiva_fxnTable                                                    
000147a9  UARTTiva_init                                                        
0000438d  UARTTiva_open                                                        
00011935  UARTTiva_read                                                        
00012347  UARTTiva_readCancel                                                  
0000bed9  UARTTiva_readPolling                                                 
0000c1cd  UARTTiva_write                                                       
0001066d  UARTTiva_writeCancel                                                 
0001176f  UARTTiva_writePolling                                                
00014089  UART_Params_init                                                     
00016ee8  UART_config                                                          
00016cd8  UART_defaultParams                                                   
00012115  UART_init                                                            
00012ac5  UART_open                                                            
00014915  UART_read                                                            
0000e9fd  UdpChecksum                                                          
00003f3d  UdpInput                                                             
00007ab5  UdpOutput                                                            
0000ac1d  VLANDeinit                                                           
000132fd  VLANInit                                                             
0000f76d  VLANReceivePacket                                                    
20019fec  _ICMPIn                                                              
2001abfc  _ICMPInErrors                                                        
2001a038  _ICMPOut                                                             
2001ac00  _ICMPOutErrors                                                       
2001aba0  _IGMPForceVersion1                                                   
2001a284  _IGMPInDiscard                                                       
2001a288  _IGMPInQuery                                                         
2001a28c  _IGMPInQueryGroup                                                    
2001a290  _IGMPInResponse                                                      
2001a294  _IGMPOutResponse                                                     
2001ac04  _IPExecuting                                                         
2001accc  _IPReasmPtr                                                          
00010e2d  _LLIExpListInsert                                                    
00012fb1  _LLIExpListRemove                                                    
0000b085  _LLITimeoutCheck                                                     
00012fdd  _LLITimeoutFlush                                                     
00010e75  _RtExpListInsert                                                     
00013009  _RtExpListRemove                                                     
0000edc5  _RtNodeInsert                                                        
00011dd5  _RtNodeRemove                                                        
00006047  _TaskInit                                                            
000061af  _TaskShutdown                                                        
00000000  __ASM__                                                              
20019758  __CIOBUF_                                                            
00000070  __ISA__                                                              
00000083  __PLAT__                                                             
2001b4f0  __STACK_END                                                          
00000800  __STACK_SIZE                                                         
000000a4  __TARG__                                                             
000175e0  __TI_CINIT_Base                                                      
000175f8  __TI_CINIT_Limit                                                     
000175c4  __TI_Handler_Table_Base                                              
000175d0  __TI_Handler_Table_Limit                                             
0000b959  __TI_auto_init                                                       
0000ee2d  __TI_decompress_lzss                                                 
000146ef  __TI_decompress_none                                                 
0001023d  __TI_ltoa                                                            
ffffffff  __TI_pprof_out_hndl                                                  
00000ca9  __TI_printfi                                                         
ffffffff  __TI_prof_data_size                                                  
ffffffff  __TI_prof_data_start                                                 
000125ed  __TI_readmsg                                                         
00017190  __TI_static_base__                                                   
0001214d  __TI_writemsg                                                        
000147e5  __TI_zero_init                                                       
000000ca  __TRDR__                                                             
0000cf17  __aeabi_cdcmpeq                                                      
0000cf17  __aeabi_cdcmple                                                      
0000cf9d  __aeabi_cdrcmple                                                     
00010f05  __aeabi_d2iz                                                         
00004f17  __aeabi_dadd                                                         
0000726d  __aeabi_ddiv                                                         
00008fe5  __aeabi_dmul                                                         
00004f0d  __aeabi_dsub                                                         
00014981  __aeabi_errno_addr                                                   
00012df7  __aeabi_i2d                                                          
0000d023  __aeabi_idiv0                                                        
0000d023  __aeabi_ldiv0                                                        
0000e76b  __aeabi_ldivmod                                                      
0000dc97  __aeabi_memclr                                                       
0000dc97  __aeabi_memclr4                                                      
0000dc97  __aeabi_memclr8                                                      
0000bc71  __aeabi_memcpy                                                       
0000bc71  __aeabi_memcpy4                                                      
0000bc71  __aeabi_memcpy8                                                      
0000dc99  __aeabi_memset                                                       
0000dc99  __aeabi_memset4                                                      
0000dc99  __aeabi_memset8                                                      
00011975  __aeabi_uidiv                                                        
00011975  __aeabi_uidivmod                                                     
0000c0a1  __aeabi_uldivmod                                                     
ffffffff  __binit__                                                            
ffffffff  __c_args__                                                           
000074d9  __localtime32                                                        
00003321  __mktime32                                                           
2001acf0  __stack                                                              
20000000  __start___llvm_prf_cnts                                              
20000000  __stop___llvm_prf_cnts                                               
000149d9  __xdc__init                                                          
2001abe0  __xdc__init__addr                                                    
000140a1  _args_main                                                           
0000fd85  _c_int00                                                             
000164e0  _ctypes_                                                             
2001a2dc  _ipcfg                                                               
0000ead5  _llSerialInit                                                        
000073a3  _llSerialServiceCheck                                                
000087cb  _llSerialShutdown                                                    
00011e11  _llTimerInit                                                         
000147b5  _llTimerShutdown                                                     
0000a2c7  _llUserLedInit                                                       
0000b4bf  _llUserLedShutdown                                                   
2001abcc  _lock                                                                
0000c92d  _mmInit                                                              
0000bda7  _nop                                                                 
2001a9c0  _oscfg                                                               
000147c1  _register_lock                                                       
000147cd  _register_unlock                                                     
2001ab78  _tz                                                                  
2001abd0  _unlock                                                              
0000f21d  abort                                                                
2001a298  allSeconds                                                           
00010981  atoi                                                                 
ffffffff  binit                                                                
000109cd  copy_in                                                              
00013e31  copysign                                                             
00013e31  copysignl                                                            
2001a29c  day                                                                  
0000fc1d  dhcpBuildDecline                                                     
00012185  dhcpBuildDiscover                                                    
0000f5f1  dhcpBuildOptions                                                     
0000bb37  dhcpBuildRequest                                                     
0000e4d1  dhcpDecodeType                                                       
000121bd  dhcpOptionsClear                                                     
00008ae5  dhcpPacketProcess                                                    
00013325  dhcpPacketReceive                                                    
00012b25  dhcpPacketSend                                                       
000140e9  dhcpSocketClose                                                      
00009c11  dhcpSocketOpen                                                       
00009ced  dhcpState                                                            
0000a52d  dhcpVerifyMessage                                                    
20019f24  dummy                                                                
00016fcc  emacHWAttrs                                                          
2001a250  emacObjects                                                          
2001a8d8  enablePrefetch                                                       
2001acc0  errno                                                                
00016b94  event0                                                               
00016b98  event1                                                               
0000d741  fdClose                                                              
000117b1  fdCloseSession                                                       
0000de79  fdOpenSession                                                        
0001424b  fdint_freefdt                                                        
00013e4b  fdint_getfdt                                                         
00010ebd  fdint_lockfd                                                         
00014929  fdint_signalevent                                                    
00014933  fdint_signaltimeout                                                  
00011bf1  fdint_unlockfd                                                       
000121f5  fdint_waitevent                                                      
0000f08d  frexp                                                                
0000f08d  frexpl                                                               
2001a2a0  g_ulStatus                                                           
2001abe4  gpioCallbackFunctions                                                
2001ab88  gpioPinConfigs                                                       
2001a2b4  hour                                                                 
00008be7  inet_aton                                                            
0000db25  inet_pton                                                            
20019f88  input                                                                
20014c98  ips                                                                  
000084a5  ldexp                                                                
000084a5  ldexpl                                                               
00014101  list_add                                                             
0000f9f5  list_get_head                                                        
000102e5  list_get_next                                                        
00013b09  list_remove                                                          
00012b55  list_remove_node                                                     
000089e1  llEnter                                                              
0000def1  llExit                                                               
0000c137  llSerialService                                                      
000147f1  llTimerGetStartTime                                                  
000114c5  llTimerGetTime                                                       
0000f0f1  llTimerTick                                                          
000074d9  localtime                                                            
2001ac9c  macAddress                                                           
00016b8c  mailbox0                                                             
00016b90  mailbox1                                                             
0000b1f1  main                                                                 
2001acc4  main_func_sp                                                         
00013c81  memccpy                                                              
0000bc71  memcpy                                                               
0000dc9f  memset                                                               
2001a2b8  minute                                                               
00003321  mktime                                                               
00005421  mmAlloc                                                              
0000c545  mmBulkAlloc                                                          
0000d1b1  mmBulkFree                                                           
0000fc77  mmCopy                                                               
0000d235  mmFree                                                               
00011219  mmZeroInit                                                           
2001a2bc  month                                                                
00007cfd  netIPAddrHook                                                        
20019ec0  nimu_mcb                                                             
00014649  osi_TaskDisable                                                      
000145e9  osi_start                                                            
2001a258  parmbuf                                                              
2001a8dc  phyCounter                                                           
00011f89  printError                                                           
2001a6f5  printTime                                                            
2001a998  pstrMsgName                                                          
2001ac20  ptTimeFirst                                                          
2001a2c0  raweth_pcb                                                           
2001a200  raweths                                                              
2001a210  raws                                                                 
2001a2c4  receivedSecond                                                       
0000c5d5  recvNTP                                                              
00004175  recvTimeStamptFromNTP                                                
000055bd  recvUART                                                             
000084a5  scalbn                                                               
000084a5  scalbnl                                                              
2001a2c8  second                                                               
00016b78  semaphore0                                                           
00016b84  semaphore1                                                           
00016b88  semaphore2                                                           
00006049  sendData2Server                                                      
00010a19  snprintf                                                             
0000c261  socketSend                                                           
000119b5  sprintf                                                              
2001a1c4  stkEvent                                                             
00013b63  strcat                                                               
00014261  strchr                                                               
00014119  strcmp                                                               
00014395  strcpy                                                               
00001fb1  strftime                                                             
000143a9  strlen                                                               
00016b80  swi0                                                                 
2001ac1c  tcp_iss                                                              
20019a44  tcps                                                                 
0001701c  ti_catalog_arm_cortexm4_tiva_ce_Boot_A_mustNotUseEnhancedClockMode__C
00017020  ti_catalog_arm_cortexm4_tiva_ce_Boot_Module__diagsEnabled__C         
00017024  ti_catalog_arm_cortexm4_tiva_ce_Boot_Module__diagsIncluded__C        
00017028  ti_catalog_arm_cortexm4_tiva_ce_Boot_Module__diagsMask__C            
000163be  ti_catalog_arm_cortexm4_tiva_ce_Boot_Module__id__C                   
00014539  ti_catalog_arm_cortexm4_tiva_ce_Boot_init__I                         
00004599  ti_catalog_arm_cortexm4_tiva_ce_Boot_sysCtlClockFreqSetI__I          
0000bf71  ti_catalog_arm_cortexm4_tiva_ce_Boot_sysCtlClockFreqSet__E           
2001abdc  ti_ndk_config_Global_HostName                                        
2001aa8c  ti_ndk_config_Global_Id2Size                                         
00016b6c  ti_ndk_config_Global_largest                                         
00016b70  ti_ndk_config_Global_numFrameBuf                                     
20014d00  ti_ndk_config_Global_pBufMem                                         
20018900  ti_ndk_config_Global_pHdrMem                                         
20000380  ti_ndk_config_Global_pit                                             
20000498  ti_ndk_config_Global_pitBuffer                                       
00016b64  ti_ndk_config_Global_rawPageCount                                    
00016b60  ti_ndk_config_Global_rawPageSize                                     
0000f651  ti_ndk_config_Global_serviceReport                                   
00016b74  ti_ndk_config_Global_sizeFrameBuf                                    
00016b68  ti_ndk_config_Global_smallest                                        
00007e21  ti_ndk_config_Global_stackThread                                     
00013c9d  ti_ndk_config_global_taskCreateHook                                  
000143bd  ti_ndk_config_global_taskExitHook                                    
0000ea69  ti_ndk_config_ip_init                                                
0000fcd1  ti_ndk_config_tcp_init                                               
2001aa2c  ti_sysbios_BIOS_Module__state__V                                     
00013e99  ti_sysbios_BIOS_RtsGateProxy_Handle__label__S                        
00013711  ti_sysbios_BIOS_RtsGateProxy_Object__delete__S                       
0001033d  ti_sysbios_BIOS_RtsGateProxy_enter__E                                
0001070d  ti_sysbios_BIOS_RtsGateProxy_leave__E                                
00014a29  ti_sysbios_BIOS_RtsGateProxy_query__E                                
00012b85  ti_sysbios_BIOS_atExitFunc__I                                        
00013681  ti_sysbios_BIOS_errorRaiseHook__I                                    
00014277  ti_sysbios_BIOS_exitFunc__I                                          
000145b9  ti_sysbios_BIOS_exit__E                                              
000145c9  ti_sysbios_BIOS_getCpuFreq__E                                        
00014801  ti_sysbios_BIOS_getThreadType__E                                     
0000e057  ti_sysbios_BIOS_nullFunc__I                                          
000136a5  ti_sysbios_BIOS_registerRTSLock__I                                   
000136c9  ti_sysbios_BIOS_removeRTSLock__I                                     
00013945  ti_sysbios_BIOS_rtsLock__I                                           
00014131  ti_sysbios_BIOS_rtsUnlock__I                                         
000145d9  ti_sysbios_BIOS_setThreadType__E                                     
000136ed  ti_sysbios_BIOS_startFunc__I                                         
000145e9  ti_sysbios_BIOS_start__E                                             
2001a7bc  ti_sysbios_family_arm_lm4_Timer_Module_State_0_device__A             
2001aa50  ti_sysbios_family_arm_lm4_Timer_Module_State_0_handles__A            
00014149  ti_sysbios_family_arm_lm4_Timer_Module__startupDone__F               
00014149  ti_sysbios_family_arm_lm4_Timer_Module__startupDone__S               
2001aba8  ti_sysbios_family_arm_lm4_Timer_Module__state__V                     
000119f9  ti_sysbios_family_arm_lm4_Timer_Module_startup__E                    
2001a4c8  ti_sysbios_family_arm_lm4_Timer_Object__table__V                     
0001702c  ti_sysbios_family_arm_lm4_Timer_enableFunc__C                        
00010f51  ti_sysbios_family_arm_lm4_Timer_enableTimers__I                      
0000b619  ti_sysbios_family_arm_lm4_Timer_enableTiva__I                        
00014811  ti_sysbios_family_arm_lm4_Timer_getMaxTicks__E                       
000102e9  ti_sysbios_family_arm_lm4_Timer_initDevice__I                        
00011509  ti_sysbios_family_arm_lm4_Timer_isrStub__E                           
00014991  ti_sysbios_family_arm_lm4_Timer_masterDisable__I                     
00010a65  ti_sysbios_family_arm_lm4_Timer_masterEnable__I                      
00017030  ti_sysbios_family_arm_lm4_Timer_numTimerDevices__C                   
00013969  ti_sysbios_family_arm_lm4_Timer_postInit__I                          
000088d9  ti_sysbios_family_arm_lm4_Timer_start__E                             
00017034  ti_sysbios_family_arm_lm4_Timer_startupNeeded__C                     
00011a39  ti_sysbios_family_arm_lm4_Timer_startup__E                           
00012bb9  ti_sysbios_family_arm_lm4_Timer_stop__E                              
00013861  ti_sysbios_family_arm_lm4_Timer_write__I                             
00017038  ti_sysbios_family_arm_m3_Hwi_E_NMI__C                                
0001703c  ti_sysbios_family_arm_m3_Hwi_E_alreadyDefined__C                     
00017040  ti_sysbios_family_arm_m3_Hwi_E_busFault__C                           
00017044  ti_sysbios_family_arm_m3_Hwi_E_debugMon__C                           
00017048  ti_sysbios_family_arm_m3_Hwi_E_hardFault__C                          
0001704c  ti_sysbios_family_arm_m3_Hwi_E_memFault__C                           
00017050  ti_sysbios_family_arm_m3_Hwi_E_noIsr__C                              
00017054  ti_sysbios_family_arm_m3_Hwi_E_reserved__C                           
00017058  ti_sysbios_family_arm_m3_Hwi_E_svCall__C                             
0001705c  ti_sysbios_family_arm_m3_Hwi_E_usageFault__C                         
00013e65  ti_sysbios_family_arm_m3_Hwi_Handle__label__S                        
00012659  ti_sysbios_family_arm_m3_Hwi_Instance_finalize__E                    
0000c2f9  ti_sysbios_family_arm_m3_Hwi_Instance_init__E                        
2001a6f6  ti_sysbios_family_arm_m3_Hwi_Module_State_0_excActive__A             
2001acdc  ti_sysbios_family_arm_m3_Hwi_Module_State_0_excContext__A            
2001ace0  ti_sysbios_family_arm_m3_Hwi_Module_State_0_excStack__A              
000166be  ti_sysbios_family_arm_m3_Hwi_Module__id__C                           
2001ac2c  ti_sysbios_family_arm_m3_Hwi_Module__root__V                         
00014161  ti_sysbios_family_arm_m3_Hwi_Module__startupDone__F                  
00014161  ti_sysbios_family_arm_m3_Hwi_Module__startupDone__S                  
2001a8a4  ti_sysbios_family_arm_m3_Hwi_Module__state__V                        
00010711  ti_sysbios_family_arm_m3_Hwi_Module_startup__E                       
00017060  ti_sysbios_family_arm_m3_Hwi_NUM_INTERRUPTS__C                       
00016db0  ti_sysbios_family_arm_m3_Hwi_Object__DESC__C                         
00016c08  ti_sysbios_family_arm_m3_Hwi_Object__PARAMS__C                       
00017064  ti_sysbios_family_arm_m3_Hwi_Object__count__C                        
00013989  ti_sysbios_family_arm_m3_Hwi_Object__delete__S                       
00013cb9  ti_sysbios_family_arm_m3_Hwi_Object__destruct__S                     
000143d1  ti_sysbios_family_arm_m3_Hwi_Object__get__S                          
2001a93c  ti_sysbios_family_arm_m3_Hwi_Object__table__V                        
0001481d  ti_sysbios_family_arm_m3_Hwi_Params__init__S                         
00017068  ti_sysbios_family_arm_m3_Hwi_ccr__C                                  
0000ff3d  ti_sysbios_family_arm_m3_Hwi_construct                               
0000f155  ti_sysbios_family_arm_m3_Hwi_create                                  
00010ab5  ti_sysbios_family_arm_m3_Hwi_delete                                  
00010b05  ti_sysbios_family_arm_m3_Hwi_destruct                                
00014829  ti_sysbios_family_arm_m3_Hwi_disableFxn__E                           
00010f99  ti_sysbios_family_arm_m3_Hwi_disableInterrupt__E                     
0000f1b9  ti_sysbios_family_arm_m3_Hwi_dispatchC__I                            
200193f8  ti_sysbios_family_arm_m3_Hwi_dispatchTable                           
000094bd  ti_sysbios_family_arm_m3_Hwi_dispatch__I                             
00014999  ti_sysbios_family_arm_m3_Hwi_doSwiRestore__I                         
000149e1  ti_sysbios_family_arm_m3_Hwi_doTaskRestore__I                        
00010fe1  ti_sysbios_family_arm_m3_Hwi_enableInterrupt__E                      
00005bf9  ti_sysbios_family_arm_m3_Hwi_excBusFault__I                          
0000acd9  ti_sysbios_family_arm_m3_Hwi_excDebugMon__I                          
00002419  ti_sysbios_family_arm_m3_Hwi_excDumpRegs__I                          
000139a9  ti_sysbios_family_arm_m3_Hwi_excHandlerAsm__I                        
0001706c  ti_sysbios_family_arm_m3_Hwi_excHandlerFunc__C                       
00004991  ti_sysbios_family_arm_m3_Hwi_excHandlerMax__I                        
000139c9  ti_sysbios_family_arm_m3_Hwi_excHandler__I                           
0000ad99  ti_sysbios_family_arm_m3_Hwi_excHardFault__I                         
00016fec  ti_sysbios_family_arm_m3_Hwi_excHookFuncs__A                         
00017070  ti_sysbios_family_arm_m3_Hwi_excHookFuncs__C                         
00006721  ti_sysbios_family_arm_m3_Hwi_excMemFault__I                          
00012691  ti_sysbios_family_arm_m3_Hwi_excNmi__I                               
00012231  ti_sysbios_family_arm_m3_Hwi_excNoIsr__I                             
00011029  ti_sysbios_family_arm_m3_Hwi_excReserved__I                          
00011e51  ti_sysbios_family_arm_m3_Hwi_excSvCall__I                            
000061b1  ti_sysbios_family_arm_m3_Hwi_excUsageFault__I                        
00011551  ti_sysbios_family_arm_m3_Hwi_getStackInfo__E                         
0000c391  ti_sysbios_family_arm_m3_Hwi_initNVIC__E                             
0000ff95  ti_sysbios_family_arm_m3_Hwi_initStacks__E                           
00017074  ti_sysbios_family_arm_m3_Hwi_nullIsrFunc__C                          
e000e000  ti_sysbios_family_arm_m3_Hwi_nvic                                    
00013461  ti_sysbios_family_arm_m3_Hwi_pendSV__I                               
0000d2b9  ti_sysbios_family_arm_m3_Hwi_postInit__I                             
00017078  ti_sysbios_family_arm_m3_Hwi_priGroup__C                             
20000000  ti_sysbios_family_arm_m3_Hwi_ramVectors                              
00000000  ti_sysbios_family_arm_m3_Hwi_resetVectors                            
000149e9  ti_sysbios_family_arm_m3_Hwi_restoreFxn__E                           
00013485  ti_sysbios_family_arm_m3_Hwi_return                                  
000149a1  ti_sysbios_family_arm_m3_Hwi_startup__E                              
000143e9  ti_sysbios_family_arm_m3_Hwi_switchFromBootStack__E                  
00010f4d  ti_sysbios_family_arm_m3_TaskSupport_Module__startupDone__S          
0000ca45  ti_sysbios_family_arm_m3_TaskSupport_buildTaskStack                  
00014839  ti_sysbios_family_arm_m3_TaskSupport_checkStack__E                   
00014849  ti_sysbios_family_arm_m3_TaskSupport_getStackAlignment__E            
000145f9  ti_sysbios_family_arm_m3_TaskSupport_glue                            
0001707c  ti_sysbios_family_arm_m3_TaskSupport_stackAlignment__C               
00012be9  ti_sysbios_family_arm_m3_TaskSupport_start__E                        
00014179  ti_sysbios_family_arm_m3_TaskSupport_swap__E                         
00013b81  ti_sysbios_family_xxx_Hwi_switchAndRunFunc                           
00013e7f  ti_sysbios_gates_GateHwi_Handle__label__S                            
00014a39  ti_sysbios_gates_GateHwi_Instance_init__E                            
00016cfc  ti_sysbios_gates_GateHwi_Module__FXNS__C                             
2001ac34  ti_sysbios_gates_GateHwi_Module__root__V                             
00016dd0  ti_sysbios_gates_GateHwi_Object__DESC__C                             
00016f18  ti_sysbios_gates_GateHwi_Object__PARAMS__C                           
00012c19  ti_sysbios_gates_GateHwi_Object__create__S                           
000139e9  ti_sysbios_gates_GateHwi_Object__delete__S                           
2001ace4  ti_sysbios_gates_GateHwi_Object__table__V                            
00014859  ti_sysbios_gates_GateHwi_enter__E                                    
000149f1  ti_sysbios_gates_GateHwi_leave__E                                    
00014a21  ti_sysbios_gates_GateHwi_query__E                                    
00013e99  ti_sysbios_gates_GateMutex_Handle__label__S                          
00017080  ti_sysbios_gates_GateMutex_Instance_State_sem__O                     
00014609  ti_sysbios_gates_GateMutex_Instance_finalize__E                      
00013cd9  ti_sysbios_gates_GateMutex_Instance_init__E                          
00016d20  ti_sysbios_gates_GateMutex_Module__FXNS__C                           
2001ac3c  ti_sysbios_gates_GateMutex_Module__root__V                           
00016df0  ti_sysbios_gates_GateMutex_Object__DESC__C                           
00016f30  ti_sysbios_gates_GateMutex_Object__PARAMS__C                         
00012c49  ti_sysbios_gates_GateMutex_Object__create__S                         
00013711  ti_sysbios_gates_GateMutex_Object__delete__S                         
2001a838  ti_sysbios_gates_GateMutex_Object__table__V                          
00012c79  ti_sysbios_gates_GateMutex_enter__E                                  
00014191  ti_sysbios_gates_GateMutex_leave__E                                  
00014a29  ti_sysbios_gates_GateMutex_query__E                                  
00017084  ti_sysbios_hal_Hwi_E_stackOverflow__C                                
00013e65  ti_sysbios_hal_Hwi_HwiProxy_Handle__label__S                         
00014161  ti_sysbios_hal_Hwi_HwiProxy_Module__startupDone__S                   
00013989  ti_sysbios_hal_Hwi_HwiProxy_Object__delete__S                        
0001481d  ti_sysbios_hal_Hwi_HwiProxy_Params__init__S                          
00010f99  ti_sysbios_hal_Hwi_HwiProxy_disableInterrupt__E                      
00014829  ti_sysbios_hal_Hwi_HwiProxy_disable__E                               
00010fe1  ti_sysbios_hal_Hwi_HwiProxy_enableInterrupt__E                       
00011551  ti_sysbios_hal_Hwi_HwiProxy_getStackInfo__E                          
000149e9  ti_sysbios_hal_Hwi_HwiProxy_restore__E                               
000149a1  ti_sysbios_hal_Hwi_HwiProxy_startup__E                               
000143e9  ti_sysbios_hal_Hwi_HwiProxy_switchFromBootStack__E                   
0001683a  ti_sysbios_hal_Hwi_Module__id__C                                     
000144d1  ti_sysbios_hal_Hwi_Module_startup__E                                 
000126c9  ti_sysbios_hal_Hwi_checkStack                                        
00010f99  ti_sysbios_hal_Hwi_disableInterrupt__E                               
00010fe1  ti_sysbios_hal_Hwi_enableInterrupt__E                                
00011551  ti_sysbios_hal_Hwi_getStackInfo__E                                   
00012961  ti_sysbios_hal_Hwi_initStack                                         
000149a1  ti_sysbios_hal_Hwi_startup__E                                        
000143e9  ti_sysbios_hal_Hwi_switchFromBootStack__E                            
000144e9  ti_sysbios_hal_Timer_Module_startup__E                               
2001ac44  ti_sysbios_hal_Timer_Object__table__V                                
00014149  ti_sysbios_hal_Timer_TimerProxy_Module__startupDone__S               
00011a39  ti_sysbios_hal_Timer_TimerProxy_startup__E                           
00011a39  ti_sysbios_hal_Timer_startup__E                                      
00017088  ti_sysbios_heaps_HeapMem_E_memory__C                                 
00013eb3  ti_sysbios_heaps_HeapMem_Handle__label__S                            
2000cc98  ti_sysbios_heaps_HeapMem_Instance_State_0_buf__A                     
00011a79  ti_sysbios_heaps_HeapMem_Instance_init__E                            
00013e99  ti_sysbios_heaps_HeapMem_Module_GateProxy_Handle__label__S           
00013711  ti_sysbios_heaps_HeapMem_Module_GateProxy_Object__delete__S          
0001154d  ti_sysbios_heaps_HeapMem_Module_GateProxy_enter__E                   
00011595  ti_sysbios_heaps_HeapMem_Module_GateProxy_leave__E                   
00014a29  ti_sysbios_heaps_HeapMem_Module_GateProxy_query__E                   
00016c60  ti_sysbios_heaps_HeapMem_Module__FXNS__C                             
0001708c  ti_sysbios_heaps_HeapMem_Module__gateObj__C                          
00016b5e  ti_sysbios_heaps_HeapMem_Module__id__C                               
2001ac4c  ti_sysbios_heaps_HeapMem_Module__root__V                             
00016e10  ti_sysbios_heaps_HeapMem_Object__DESC__C                             
00016d44  ti_sysbios_heaps_HeapMem_Object__PARAMS__C                           
00017090  ti_sysbios_heaps_HeapMem_Object__count__C                            
00012ca9  ti_sysbios_heaps_HeapMem_Object__create__S                           
00013a09  ti_sysbios_heaps_HeapMem_Object__delete__S                           
000143fd  ti_sysbios_heaps_HeapMem_Object__get__S                              
2001ab0c  ti_sysbios_heaps_HeapMem_Object__table__V                            
0000a121  ti_sysbios_heaps_HeapMem_alloc__E                                    
0000dba1  ti_sysbios_heaps_HeapMem_free__E                                     
00010a69  ti_sysbios_heaps_HeapMem_getStats__E                                 
00011e91  ti_sysbios_heaps_HeapMem_init__I                                     
000149f9  ti_sysbios_heaps_HeapMem_isBlocking__E                               
00017094  ti_sysbios_heaps_HeapMem_reqAlign__C                                 
00013cf9  ti_sysbios_knl_Clock_Instance_finalize__E                            
00011ed1  ti_sysbios_knl_Clock_Instance_init__E                                
00017098  ti_sysbios_knl_Clock_Module_State_clockQ__O                          
2001ac54  ti_sysbios_knl_Clock_Module__root__V                                 
2001a96c  ti_sysbios_knl_Clock_Module__state__V                                
00013739  ti_sysbios_knl_Clock_Module_startup__E                               
00016e30  ti_sysbios_knl_Clock_Object__DESC__C                                 
00016d68  ti_sysbios_knl_Clock_Object__PARAMS__C                               
00013a29  ti_sysbios_knl_Clock_Object__destruct__S                             
00014865  ti_sysbios_knl_Clock_Params__init__S                                 
00014149  ti_sysbios_knl_Clock_TimerProxy_Module__startupDone__S               
000119f5  ti_sysbios_knl_Clock_TimerProxy_getMaxTicks__E                       
00011a39  ti_sysbios_knl_Clock_TimerProxy_startup__E                           
00013379  ti_sysbios_knl_Clock_addI__E                                         
000126fd  ti_sysbios_knl_Clock_construct                                       
00012269  ti_sysbios_knl_Clock_create                                          
00011e4d  ti_sysbios_knl_Clock_destruct                                        
00013035  ti_sysbios_knl_Clock_doTick__I                                       
00014871  ti_sysbios_knl_Clock_getTicks__E                                     
00014a41  ti_sysbios_knl_Clock_logTick__E                                      
00014701  ti_sysbios_knl_Clock_removeI__E                                      
00013761  ti_sysbios_knl_Clock_start__E                                        
00014a01  ti_sysbios_knl_Clock_stop__E                                         
0000e541  ti_sysbios_knl_Clock_workFunc__E                                     
0001709c  ti_sysbios_knl_Event_Instance_State_pendQ__O                         
2001ab24  ti_sysbios_knl_Event_Object__table__V                                
00012999  ti_sysbios_knl_Event_pendTimeout__I                                  
00006869  ti_sysbios_knl_Event_pend__E                                         
0000cad1  ti_sysbios_knl_Event_post__E                                         
00016ff4  ti_sysbios_knl_Idle_funcList__A                                      
00016ffc  ti_sysbios_knl_Idle_funcList__C                                      
00014711  ti_sysbios_knl_Idle_loop__E                                          
00013a49  ti_sysbios_knl_Idle_run__E                                           
20019de0  ti_sysbios_knl_Mailbox_Instance_State_0_allocBuf__A                  
20019e50  ti_sysbios_knl_Mailbox_Instance_State_1_allocBuf__A                  
000170a0  ti_sysbios_knl_Mailbox_Instance_State_dataQue__O                     
000170a4  ti_sysbios_knl_Mailbox_Instance_State_dataSem__O                     
000170a8  ti_sysbios_knl_Mailbox_Instance_State_freeQue__O                     
000170ac  ti_sysbios_knl_Mailbox_Instance_State_freeSem__O                     
00011071  ti_sysbios_knl_Mailbox_Module_startup__E                             
000170b0  ti_sysbios_knl_Mailbox_Object__count__C                              
00014411  ti_sysbios_knl_Mailbox_Object__get__S                                
2001a390  ti_sysbios_knl_Mailbox_Object__table__V                              
000170b4  ti_sysbios_knl_Mailbox_maxTypeAlign__C                               
0000e229  ti_sysbios_knl_Mailbox_pend__E                                       
00012cd9  ti_sysbios_knl_Mailbox_postInit__I                                   
0000cd81  ti_sysbios_knl_Mailbox_post__E                                       
00014a09  ti_sysbios_knl_Queue_Instance_init__E                                
2001ac5c  ti_sysbios_knl_Queue_Module__root__V                                 
00016e50  ti_sysbios_knl_Queue_Object__DESC__C                                 
00016f48  ti_sysbios_knl_Queue_Object__PARAMS__C                               
00013d15  ti_sysbios_knl_Queue_Object__destruct__S                             
0001487d  ti_sysbios_knl_Queue_Object__get__S                                  
00013061  ti_sysbios_knl_Queue_construct                                       
00011e8d  ti_sysbios_knl_Queue_destruct                                        
00014721  ti_sysbios_knl_Queue_empty__E                                        
00013d31  ti_sysbios_knl_Queue_get__E                                          
00013d51  ti_sysbios_knl_Queue_put__E                                          
000170b8  ti_sysbios_knl_Semaphore_Instance_State_pendQ__O                     
00014619  ti_sysbios_knl_Semaphore_Instance_finalize__E                        
00013789  ti_sysbios_knl_Semaphore_Instance_init__E                            
2001ac64  ti_sysbios_knl_Semaphore_Module__root__V                             
00016e70  ti_sysbios_knl_Semaphore_Object__DESC__C                             
00016d8c  ti_sysbios_knl_Semaphore_Object__PARAMS__C                           
000137ad  ti_sysbios_knl_Semaphore_Object__delete__S                           
00013a69  ti_sysbios_knl_Semaphore_Object__destruct__S                         
2001a7fc  ti_sysbios_knl_Semaphore_Object__table__V                            
00014889  ti_sysbios_knl_Semaphore_Params__init__S                             
00012d09  ti_sysbios_knl_Semaphore_construct                                   
00012731  ti_sysbios_knl_Semaphore_create                                      
00011ecd  ti_sysbios_knl_Semaphore_delete                                      
00011f0d  ti_sysbios_knl_Semaphore_destruct                                    
000129d1  ti_sysbios_knl_Semaphore_pendTimeout__I                              
00007869  ti_sysbios_knl_Semaphore_pend__E                                     
0000f221  ti_sysbios_knl_Semaphore_post__E                                     
00014501  ti_sysbios_knl_Semaphore_reset__E                                    
00013ecd  ti_sysbios_knl_Swi_Handle__label__S                                  
00014a49  ti_sysbios_knl_Swi_Instance_finalize__E                              
00010341  ti_sysbios_knl_Swi_Instance_init__E                                  
2001a548  ti_sysbios_knl_Swi_Module_State_0_readyQ__A                          
2001ac6c  ti_sysbios_knl_Swi_Module__root__V                                   
2001aaa8  ti_sysbios_knl_Swi_Module__state__V                                  
000133a1  ti_sysbios_knl_Swi_Module_startup__E                                 
00016e90  ti_sysbios_knl_Swi_Object__DESC__C                                   
00016c88  ti_sysbios_knl_Swi_Object__PARAMS__C                                 
000170bc  ti_sysbios_knl_Swi_Object__count__C                                  
00013a89  ti_sysbios_knl_Swi_Object__delete__S                                 
00014425  ti_sysbios_knl_Swi_Object__get__S                                    
2001a648  ti_sysbios_knl_Swi_Object__table__V                                  
0000f93d  ti_sysbios_knl_Swi_create                                            
0001222d  ti_sysbios_knl_Swi_delete                                            
00014629  ti_sysbios_knl_Swi_disable__E                                        
00011599  ti_sysbios_knl_Swi_post__E                                           
0000ead9  ti_sysbios_knl_Swi_restoreHwi__E                                     
00011f11  ti_sysbios_knl_Swi_restore__E                                        
00010ab9  ti_sysbios_knl_Swi_runLoop__I                                        
0000f999  ti_sysbios_knl_Swi_run__I                                            
0000f9f9  ti_sysbios_knl_Swi_schedule__I                                       
00014a11  ti_sysbios_knl_Swi_startup__E                                        
000170c0  ti_sysbios_knl_Task_E_deleteNotAllowed__C                            
000170c4  ti_sysbios_knl_Task_E_spOutOfBounds__C                               
000170c8  ti_sysbios_knl_Task_E_stackOverflow__C                               
00013ee7  ti_sysbios_knl_Task_Handle__label__S                                 
2001a2cc  ti_sysbios_knl_Task_Instance_State_0_hookEnv__A                      
20018bf8  ti_sysbios_knl_Task_Instance_State_0_stack__A                        
2001a2d0  ti_sysbios_knl_Task_Instance_State_1_hookEnv__A                      
200191f8  ti_sysbios_knl_Task_Instance_State_1_stack__A                        
000069b1  ti_sysbios_knl_Task_Instance_finalize__E                             
000095b1  ti_sysbios_knl_Task_Instance_init__E                                 
2001ace8  ti_sysbios_knl_Task_Module_State_0_idleTask__A                       
2001a5c8  ti_sysbios_knl_Task_Module_State_0_readyQ__A                         
000170cc  ti_sysbios_knl_Task_Module_State_inactiveQ__O                        
000170d0  ti_sysbios_knl_Task_Module_State_terminatedQ__O                      
00017178  ti_sysbios_knl_Task_Module__id__C                                    
2001ac74  ti_sysbios_knl_Task_Module__root__V                                  
2001a6f8  ti_sysbios_knl_Task_Module__state__V                                 
0000c669  ti_sysbios_knl_Task_Module_startup__E                                
00016eb0  ti_sysbios_knl_Task_Object__DESC__C                                  
00016b9c  ti_sysbios_knl_Task_Object__PARAMS__C                                
000170d4  ti_sysbios_knl_Task_Object__count__C                                 
00013aa9  ti_sysbios_knl_Task_Object__delete__S                                
00014439  ti_sysbios_knl_Task_Object__first__S                                 
00014639  ti_sysbios_knl_Task_Object__get__S                                   
000170d8  ti_sysbios_knl_Task_Object__heap__C                                  
0001444d  ti_sysbios_knl_Task_Object__next__S                                  
2001a430  ti_sysbios_knl_Task_Object__table__V                                 
00014895  ti_sysbios_knl_Task_Params__init__S                                  
00010f4d  ti_sysbios_knl_Task_SupportProxy_Module__startupDone__S              
00014839  ti_sysbios_knl_Task_SupportProxy_checkStack__E                       
00014849  ti_sysbios_knl_Task_SupportProxy_getStackAlignment__E                
00012be9  ti_sysbios_knl_Task_SupportProxy_start__E                            
00014179  ti_sysbios_knl_Task_SupportProxy_swap__E                             
000170dc  ti_sysbios_knl_Task_allBlockedFunc__C                                
00010b09  ti_sysbios_knl_Task_allBlockedFunction__I                            
0000b2a9  ti_sysbios_knl_Task_checkStacks__E                                   
0000fa55  ti_sysbios_knl_Task_create                                           
000170e0  ti_sysbios_knl_Task_defaultStackHeap__C                              
000170e4  ti_sysbios_knl_Task_defaultStackSize__C                              
00012655  ti_sysbios_knl_Task_delete                                           
000110b9  ti_sysbios_knl_Task_deleteTerminatedTasksFunc__I                     
00014649  ti_sysbios_knl_Task_disable__E                                       
00013d71  ti_sysbios_knl_Task_enter__I                                         
0000ae59  ti_sysbios_knl_Task_exit__E                                          
000149a9  ti_sysbios_knl_Task_getHookContext__E                                
000148a1  ti_sysbios_knl_Task_getIdleTask__E                                   
00016f60  ti_sysbios_knl_Task_hooks__A                                         
00017004  ti_sysbios_knl_Task_hooks__C                                         
000170e8  ti_sysbios_knl_Task_numConstructedTasks__C                           
00009971  ti_sysbios_knl_Task_postInit__I                                      
00012d39  ti_sysbios_knl_Task_processVitalTaskFlag__I                          
000137d1  ti_sysbios_knl_Task_restoreHwi__E                                    
00013091  ti_sysbios_knl_Task_restore__E                                       
0000c009  ti_sysbios_knl_Task_schedule__I                                      
000148b1  ti_sysbios_knl_Task_self__E                                          
000149b1  ti_sysbios_knl_Task_setHookContext__E                                
0000b771  ti_sysbios_knl_Task_setPri__E                                        
00013f01  ti_sysbios_knl_Task_sleepTimeout__I                                  
0000aaa1  ti_sysbios_knl_Task_sleep__E                                         
0000c6f9  ti_sysbios_knl_Task_startCore__E                                     
00014a31  ti_sysbios_knl_Task_startup__E                                       
00014185  ti_sysbios_knl_Task_swapReturn                                       
0000fab1  ti_sysbios_knl_Task_unblockI__E                                      
000141a9  ti_sysbios_knl_Task_unblock__E                                       
00016b7c  timer0                                                               
00014461  timerHWI                                                             
2001a238  tpseudo                                                              
2001a2d4  ts                                                                   
00016f78  uartTivaHWAttrs                                                      
20019978  uartTivaObjects                                                      
2001a134  uartTivaRingBuffer                                                   
2001a110  udps                                                                 
0000b815  updateTime                                                           
2001a244  upseudo                                                              
2001a0c4  vlan_mcb                                                             
00014513  wcslen                                                               
000170ec  xdc_runtime_Assert_E_assertFailed__C                                 
00010395  xdc_runtime_Assert_raise__I                                          
000170f0  xdc_runtime_Core_A_initializedParams__C                              
000170f4  xdc_runtime_Core_Module__diagsEnabled__C                             
000170f8  xdc_runtime_Core_Module__diagsIncluded__C                            
000170fc  xdc_runtime_Core_Module__diagsMask__C                                
0001717a  xdc_runtime_Core_Module__id__C                                       
00012765  xdc_runtime_Core_assignLabel__I                                      
0001125f  xdc_runtime_Core_assignParams__I                                     
0000a5f9  xdc_runtime_Core_constructObject__I                                  
00008de9  xdc_runtime_Core_createObject__I                                     
0000ee95  xdc_runtime_Core_deleteObject__I                                     
00017100  xdc_runtime_Error_E_memory__C                                        
00017104  xdc_runtime_Error_Module__diagsEnabled__C                            
00017108  xdc_runtime_Error_Module__diagsIncluded__C                           
0001710c  xdc_runtime_Error_Module__diagsMask__C                               
0001717c  xdc_runtime_Error_Module__loggerDefined__C                           
00017110  xdc_runtime_Error_Module__loggerFxn8__C                              
00017114  xdc_runtime_Error_Module__loggerObj__C                               
2001a90a  xdc_runtime_Error_Module__state__V                                   
000141c1  xdc_runtime_Error_check__E                                           
0001268d  xdc_runtime_Error_getMsg__E                                          
000126c5  xdc_runtime_Error_getSite__E                                         
000148bd  xdc_runtime_Error_init__E                                            
0001717e  xdc_runtime_Error_maxDepth__C                                        
00008059  xdc_runtime_Error_policyDefault__E                                   
00017118  xdc_runtime_Error_policyFxn__C                                       
0001718c  xdc_runtime_Error_policy__C                                          
0000ebb1  xdc_runtime_Error_print__E                                           
0001711c  xdc_runtime_Error_raiseHook__C                                       
00013d8d  xdc_runtime_Error_raiseX__E                                          
000115dd  xdc_runtime_Error_setX__E                                            
000148c9  xdc_runtime_Gate_enterSystem__E                                      
00014659  xdc_runtime_Gate_leaveSystem__E                                      
00017120  xdc_runtime_IGateProvider_Interface__BASE__C                         
00017124  xdc_runtime_IHeap_Interface__BASE__C                                 
00017128  xdc_runtime_IModule_Interface__BASE__C                               
0001712c  xdc_runtime_Log_L_error__C                                           
00013e7f  xdc_runtime_Main_Module_GateProxy_Handle__label__S                   
000139e9  xdc_runtime_Main_Module_GateProxy_Object__delete__S                  
00014a21  xdc_runtime_Main_Module_GateProxy_query__E                           
00013eb3  xdc_runtime_Memory_HeapProxy_Handle__label__S                        
00013a09  xdc_runtime_Memory_HeapProxy_Object__delete__S                       
0001493d  xdc_runtime_Memory_HeapProxy_alloc__E                                
00014947  xdc_runtime_Memory_HeapProxy_free__E                                 
00017180  xdc_runtime_Memory_Module__id__C                                     
2001acec  xdc_runtime_Memory_Module__state__V                                  
0000ec1d  xdc_runtime_Memory_alloc__E                                          
000148d5  xdc_runtime_Memory_calloc__E                                         
00017130  xdc_runtime_Memory_defaultHeapInstance__C                            
00014669  xdc_runtime_Memory_free__E                                           
000148e1  xdc_runtime_Memory_getMaxDefaultTypeAlign__E                         
00013da9  xdc_runtime_Memory_valloc__E                                         
2001ac7c  xdc_runtime_Registry_Module__state__V                                
00013ac9  xdc_runtime_Registry_findById__E                                     
2001ac84  xdc_runtime_Startup_Module__state__V                                 
00000001  xdc_runtime_Startup__EXECFXN__C                                      
00000001  xdc_runtime_Startup__RESETFXN__C                                     
00017134  xdc_runtime_Startup_execImpl__C                                      
00010761  xdc_runtime_Startup_exec__E                                          
00014525  xdc_runtime_Startup_exec__I                                          
00016fa4  xdc_runtime_Startup_firstFxns__A                                     
0001700c  xdc_runtime_Startup_firstFxns__C                                     
00017014  xdc_runtime_Startup_lastFxns__C                                      
00017138  xdc_runtime_Startup_maxPasses__C                                     
0000e37f  xdc_runtime_Startup_reset__I                                         
00016fb8  xdc_runtime_Startup_sfxnRts__A                                       
0001713c  xdc_runtime_Startup_sfxnRts__C                                       
00016cb0  xdc_runtime_Startup_sfxnTab__A                                       
00017140  xdc_runtime_Startup_sfxnTab__C                                       
000091d9  xdc_runtime_Startup_startMods__I                                     
20019d60  xdc_runtime_SysMin_Module_State_0_outbuf__A                          
2001abb4  xdc_runtime_SysMin_Module__state__V                                  
00013ae9  xdc_runtime_SysMin_Module_startup__E                                 
00012d69  xdc_runtime_SysMin_abort__E                                          
00017144  xdc_runtime_SysMin_bufSize__C                                        
00013dc5  xdc_runtime_SysMin_exit__E                                           
00017182  xdc_runtime_SysMin_flushAtExit__C                                    
00011621  xdc_runtime_SysMin_flush__E                                          
00017148  xdc_runtime_SysMin_outputFunc__C                                     
00013883  xdc_runtime_SysMin_output__I                                         
000122a1  xdc_runtime_SysMin_putch__E                                          
00014679  xdc_runtime_SysMin_ready__E                                          
00013e7f  xdc_runtime_System_Module_GateProxy_Handle__label__S                 
000139e9  xdc_runtime_System_Module_GateProxy_Object__delete__S                
0001295d  xdc_runtime_System_Module_GateProxy_enter__E                         
00012bb5  xdc_runtime_System_Module_GateProxy_leave__E                         
00014a21  xdc_runtime_System_Module_GateProxy_query__E                         
2001ac8c  xdc_runtime_System_Module_State_0_atexitHandlers__A                  
0001714c  xdc_runtime_System_Module__gateObj__C                                
2001ac94  xdc_runtime_System_Module__state__V                                  
00014a17  xdc_runtime_System_Module_startup__E                                 
00012d69  xdc_runtime_System_SupportProxy_abort__E                             
00013dc5  xdc_runtime_System_SupportProxy_exit__E                              
00011621  xdc_runtime_System_SupportProxy_flush__E                             
000122a1  xdc_runtime_System_SupportProxy_putch__E                             
00014679  xdc_runtime_System_SupportProxy_ready__E                             
00017150  xdc_runtime_System_abortFxn__C                                       
0000f21d  xdc_runtime_System_abortStd__E                                       
00013de1  xdc_runtime_System_abort__E                                          
00013f1b  xdc_runtime_System_aprintf__E                                        
0001308d  xdc_runtime_System_aprintf_va__F                                     
000122d9  xdc_runtime_System_atexit__E                                         
00013487  xdc_runtime_System_avprintf__E                                       
00002fd5  xdc_runtime_System_doPrint__I                                        
00017154  xdc_runtime_System_exitFxn__C                                        
0000f21d  xdc_runtime_System_exitStd__E                                        
000141d9  xdc_runtime_System_exit__E                                           
00017158  xdc_runtime_System_extendFxn__C                                      
00011621  xdc_runtime_System_flush__E                                          
0000e849  xdc_runtime_System_formatNum__I                                      
0001715c  xdc_runtime_System_maxAtexitHandlers__C                              
000092d1  xdc_runtime_System_printfExtend__I                                   
00013f35  xdc_runtime_System_printf__E                                         
00013375  xdc_runtime_System_printf_va__F                                      
00012d99  xdc_runtime_System_processAtExit__E                                  
00013191  xdc_runtime_System_putchar__I                                        
000137f5  xdc_runtime_System_vprintf__E                                        
00014689  xdc_runtime_System_vsnprintf__E                                      
000142a3  xdc_runtime_System_vsprintf__E                                       
00017184  xdc_runtime_Text_charCnt__C                                          
00014a4c  xdc_runtime_Text_charTab__A                                          
00017160  xdc_runtime_Text_charTab__C                                          
000130bd  xdc_runtime_Text_cordText__E                                         
00017186  xdc_runtime_Text_isLoaded__C                                         
00017164  xdc_runtime_Text_nameEmpty__C                                        
00017168  xdc_runtime_Text_nameStatic__C                                       
0001716c  xdc_runtime_Text_nameUnknown__C                                      
000165e2  xdc_runtime_Text_nodeTab__A                                          
00017170  xdc_runtime_Text_nodeTab__C                                          
00012799  xdc_runtime_Text_printVisFxn__I                                      
0000fb0d  xdc_runtime_Text_putLab__E                                           
0000b9f9  xdc_runtime_Text_putMod__E                                           
0000bd0d  xdc_runtime_Text_putSite__E                                          
00017188  xdc_runtime_Text_registryModsLastId__C                               
000141f1  xdc_runtime_Text_ropeText__E                                         
0001718a  xdc_runtime_Text_unnamedModsLastId__C                                
000107b1  xdc_runtime_Text_visitRope2__I                                       
00017174  xdc_runtime_Text_visitRopeFxn__C                                     
00014699  xdc_runtime_Text_visitRope__I                                        
00011665  xdc_runtime_Text_xprintf__I                                          
2001a2d8  year                                                                 


GLOBAL SYMBOLS: SORTED BY Symbol Address 

address   name                                                                 
-------   ----                                                                 
00000000  __ASM__                                                              
00000000  ti_sysbios_family_arm_m3_Hwi_resetVectors                            
00000001  xdc_runtime_Startup__EXECFXN__C                                      
00000001  xdc_runtime_Startup__RESETFXN__C                                     
00000041  TcpInput                                                             
00000070  __ISA__                                                              
00000083  __PLAT__                                                             
000000a4  __TARG__                                                             
000000ca  __TRDR__                                                             
00000800  __STACK_SIZE                                                         
00000ca9  __TI_printfi                                                         
000016f7  LED_TOGGLE                                                           
000016f9  TcpOutput                                                            
00001fb1  strftime                                                             
00002415  BindGetIF                                                            
00002419  ti_sysbios_family_arm_m3_Hwi_excDumpRegs__I                          
00002849  IPTxPacket                                                           
00002c51  IPRxPacket                                                           
00002fd5  xdc_runtime_System_doPrint__I                                        
00003321  __mktime32                                                           
00003321  mktime                                                               
000035c1  SockSet                                                              
00003ab5  IPReasm                                                              
00003d01  ICMPInput                                                            
00003f3d  UdpInput                                                             
00004175  recvTimeStamptFromNTP                                                
0000438d  UARTTiva_open                                                        
00004599  ti_catalog_arm_cortexm4_tiva_ce_Boot_sysCtlClockFreqSetI__I          
0000479d  SockRecv                                                             
00004991  ti_sysbios_family_arm_m3_Hwi_excHandlerMax__I                        
00004d55  EMACSnow_NIMUInit                                                    
00004f0d  __aeabi_dsub                                                         
00004f17  __aeabi_dadd                                                         
000050c3  NatMsg                                                               
000050c5  LLITxIpPacket                                                        
00005275  LLIRxPacket                                                          
00005421  mmAlloc                                                              
000055bd  recvUART                                                             
00005759  IGMPInput                                                            
000058f1  SockNew                                                              
00005a81  NC_NetStart                                                          
00005bf5  BindGetNext                                                          
00005bf9  ti_sysbios_family_arm_m3_Hwi_excBusFault__I                          
00005d6d  RTCReport                                                            
00005edd  SBRead                                                               
00006047  _TaskInit                                                            
00006049  sendData2Server                                                      
000061af  _TaskShutdown                                                        
000061b1  ti_sysbios_family_arm_m3_Hwi_excUsageFault__I                        
00006315  SockConnect                                                          
00006475  DHCPOpen                                                             
000065cd  GPIO_setConfig                                                       
0000671d  NDK_vsprintf                                                         
00006721  ti_sysbios_family_arm_m3_Hwi_excMemFault__I                          
00006869  ti_sysbios_knl_Event_pend__E                                         
000069b1  ti_sysbios_knl_Task_Instance_finalize__E                             
00006af9  BindNew                                                              
00006c3d  TcpTimeoutCheck                                                      
00006d7d  CfgAddEntry                                                          
00006eb9  SockNotify                                                           
00006ff5  SockSend                                                             
0000726d  __aeabi_ddiv                                                         
000073a3  _llSerialServiceCheck                                                
000073a5  ICMPGenPacket                                                        
000074d9  __localtime32                                                        
000074d9  localtime                                                            
0000760d  GPIOPadConfigSet                                                     
0000773d  EK_TM4C1294XL_initEMAC                                               
00007869  ti_sysbios_knl_Semaphore_pend__E                                     
00007991  SockPcbResolve                                                       
00007ab5  UdpOutput                                                            
00007cfd  netIPAddrHook                                                        
00007e21  ti_ndk_config_Global_stackThread                                     
00007f41  TcpGenPacket                                                         
00008059  xdc_runtime_Error_policyDefault__E                                   
00008171  NIMUIoctl                                                            
00008285  NodeTreeFree                                                         
00008395  RawInput                                                             
000084a5  ldexp                                                                
000084a5  ldexpl                                                               
000084a5  scalbn                                                               
000084a5  scalbnl                                                              
000085b5  RtFind                                                               
000086c1  RtCreate                                                             
000087cb  _llSerialShutdown                                                    
000087cd  EMACSnow_emacStart                                                   
000088d5  NodeSetRt                                                            
000088d9  ti_sysbios_family_arm_lm4_Timer_start__E                             
000089e1  llEnter                                                              
00008ae5  dhcpPacketProcess                                                    
00008be7  inet_aton                                                            
00008de9  xdc_runtime_Core_createObject__I                                     
00008fe5  __aeabi_dmul                                                         
000090e1  PipeRecv                                                             
000091d9  xdc_runtime_Startup_startMods__I                                     
000092d1  xdc_runtime_System_printfExtend__I                                   
000093c9  TaskGetEnv                                                           
000094bd  ti_sysbios_family_arm_m3_Hwi_dispatch__I                             
000095b1  ti_sysbios_knl_Task_Instance_init__E                                 
000096a5  LLIGenArpPacket                                                      
00009795  SockClose                                                            
00009885  TaskSetEnv                                                           
0000996d  RawEthSockPrAttach                                                   
00009971  ti_sysbios_knl_Task_postInit__I                                      
00009a55  TcpTimeoutRexmt                                                      
00009b35  SBWrite                                                              
00009c11  dhcpSocketOpen                                                       
00009ced  dhcpState                                                            
00009dc9  NodeAdd                                                              
00009ea1  TcpPrSetOption                                                       
0000a04d  SockPcbBind                                                          
0000a121  ti_sysbios_heaps_HeapMem_alloc__E                                    
0000a1f5  NIMUReceivePacket                                                    
0000a2c7  _llUserLedInit                                                       
0000a2c9  ICMPSendRtAdv                                                        
0000a52d  dhcpVerifyMessage                                                    
0000a5f9  xdc_runtime_Core_constructObject__I                                  
0000a6c5  RawEthSockNew                                                        
0000a855  EMACSnow_InitDMADescriptors                                          
0000aaa1  TaskSleep                                                            
0000aaa1  ti_sysbios_knl_Task_sleep__E                                         
0000ac1d  VLANDeinit                                                           
0000acd9  ti_sysbios_family_arm_m3_Hwi_excDebugMon__I                          
0000ad95  RawEthSockPrDetach                                                   
0000ad99  ti_sysbios_family_arm_m3_Hwi_excHardFault__I                         
0000ae55  SemPend                                                              
0000ae59  TaskExit                                                             
0000ae59  ti_sysbios_knl_Task_exit__E                                          
0000af15  EK_TM4C1294XL_initGeneral                                            
0000b085  _LLITimeoutCheck                                                     
0000b13d  TcpTimeoutKeep                                                       
0000b1f1  main                                                                 
0000b2a5  SemPost                                                              
0000b2a9  ti_sysbios_knl_Task_checkStacks__E                                   
0000b40f  RawEthSockSet                                                        
0000b4bf  _llUserLedShutdown                                                   
0000b619  ti_sysbios_family_arm_lm4_Timer_enableTiva__I                        
0000b6c5  SockCreatePacket                                                     
0000b76d  SemReset                                                             
0000b771  ti_sysbios_knl_Task_setPri__E                                        
0000b815  updateTime                                                           
0000b8b9  IPGetRoute                                                           
0000b959  __TI_auto_init                                                       
0000b9f9  xdc_runtime_Text_putMod__E                                           
0000ba99  NIMUAddEthernetHeader                                                
0000bb37  dhcpBuildRequest                                                     
0000bbd5  ExecOpen                                                             
0000bc71  __aeabi_memcpy                                                       
0000bc71  __aeabi_memcpy4                                                      
0000bc71  __aeabi_memcpy8                                                      
0000bc71  memcpy                                                               
0000bd0d  xdc_runtime_Text_putSite__E                                          
0000bda7  _nop                                                                 
0000bda9  NC_SystemOpen                                                        
0000bed9  UARTTiva_readPolling                                                 
0000bf71  ti_catalog_arm_cortexm4_tiva_ce_Boot_sysCtlClockFreqSet__E           
0000c009  ti_sysbios_knl_Task_schedule__I                                      
0000c0a1  __aeabi_uldivmod                                                     
0000c137  llSerialService                                                      
0000c139  CfgRemoveEntry                                                       
0000c1cd  UARTTiva_write                                                       
0000c261  socketSend                                                           
0000c2f5  TaskSelf                                                             
0000c2f9  ti_sysbios_family_arm_m3_Hwi_Instance_init__E                        
0000c38d  TaskSetPri                                                           
0000c391  ti_sysbios_family_arm_m3_Hwi_initNVIC__E                             
0000c425  CfgExecute                                                           
0000c4b5  IGMPMsg                                                              
0000c545  mmBulkAlloc                                                          
0000c5d5  recvNTP                                                              
0000c665  UARTIntClear                                                         
0000c669  ti_sysbios_knl_Task_Module_startup__E                                
0000c6f9  ti_sysbios_knl_Task_startCore__E                                     
0000c789  GPIO_init                                                            
0000c815  IPMsg                                                                
0000c8a1  UARTTiva_control                                                     
0000c92d  _mmInit                                                              
0000ca45  ti_sysbios_family_arm_m3_TaskSupport_buildTaskStack                  
0000cad1  ti_sysbios_knl_Event_post__E                                         
0000ccf9  SockPcbCtlError                                                      
0000cd81  ti_sysbios_knl_Mailbox_post__E                                       
0000cf17  __aeabi_cdcmpeq                                                      
0000cf17  __aeabi_cdcmple                                                      
0000cf9d  __aeabi_cdrcmple                                                     
0000d023  __aeabi_idiv0                                                        
0000d023  __aeabi_ldiv0                                                        
0000d025  CfgGetEntry                                                          
0000d0a9  EMACSnow_processPhyInterrupt                                         
0000d12d  TcpPrAttach                                                          
0000d1b1  mmBulkFree                                                           
0000d235  mmFree                                                               
0000d2b9  ti_sysbios_family_arm_m3_Hwi_postInit__I                             
0000d441  EMACSnow_emacStop                                                    
0000d541  LLINew                                                               
0000d5c1  NS_BootTask                                                          
0000d641  PBM_alloc                                                            
0000d6c1  RawOutput                                                            
0000d741  fdClose                                                              
0000d7c1  CfgGetNextEntry                                                      
0000d83d  EMACSnow_hwiIntFxn                                                   
0000d935  IGMPJoin                                                             
0000d9b1  NDK_setsockopt                                                       
0000da2d  NIMURegister                                                         
0000daa9  PBM_free                                                             
0000db25  inet_pton                                                            
0000dba1  ti_sysbios_heaps_HeapMem_free__E                                     
0000dc97  __aeabi_memclr                                                       
0000dc97  __aeabi_memclr4                                                      
0000dc97  __aeabi_memclr8                                                      
0000dc99  __aeabi_memset                                                       
0000dc99  __aeabi_memset4                                                      
0000dc99  __aeabi_memset8                                                      
0000dc9f  memset                                                               
0000dd11  EMACInit                                                             
0000dd89  NDK_sendto                                                           
0000de01  TcpXmitTimer                                                         
0000de79  fdOpenSession                                                        
0000def1  llExit                                                               
0000df69  PipeSend                                                             
0000dfe1  TcpTimeoutSackRexmt                                                  
0000e057  ti_sysbios_BIOS_nullFunc__I                                          
0000e059  IGMPLeaveHostGroup                                                   
0000e0cd  NIMUShutdown                                                         
0000e141  RawEthRxPacket                                                       
0000e1b5  SockPcbConnect                                                       
0000e229  ti_sysbios_knl_Mailbox_pend__E                                       
0000e29d  SemCreateBinary                                                      
0000e30f  NDK_send                                                             
0000e37f  xdc_runtime_Startup_reset__I                                         
0000e461  SockShutdown                                                         
0000e4d1  dhcpDecodeType                                                       
0000e541  ti_sysbios_knl_Clock_workFunc__E                                     
0000e5b1  NDK_recv                                                             
0000e621  RtWalkNext                                                           
0000e76b  __aeabi_ldivmod                                                      
0000e849  xdc_runtime_System_formatNum__I                                      
0000e8b9  DbgPrintf                                                            
0000e925  NodeTreeNew                                                          
0000e991  RawEthTxPacket                                                       
0000e9fd  UdpChecksum                                                          
0000ea69  ti_ndk_config_ip_init                                                
0000ead5  _llSerialInit                                                        
0000ead9  ti_sysbios_knl_Swi_restoreHwi__E                                     
0000ebb1  xdc_runtime_Error_print__E                                           
0000ec1d  xdc_runtime_Memory_alloc__E                                          
0000ec89  TcpPrInherit                                                         
0000ecf3  NDK_socket                                                           
0000ed5d  PBM_open                                                             
0000edc5  _RtNodeInsert                                                        
0000ee2d  __TI_decompress_lzss                                                 
0000ee95  xdc_runtime_Core_deleteObject__I                                     
0000eefd  CfgFree                                                              
0000ef61  GPIO_hwiIntFxn                                                       
0000efc5  PBMQ_enq                                                             
0000f029  SockSpawnAbort                                                       
0000f08d  frexp                                                                
0000f08d  frexpl                                                               
0000f0f1  llTimerTick                                                          
0000f155  ti_sysbios_family_arm_m3_Hwi_create                                  
0000f1b9  ti_sysbios_family_arm_m3_Hwi_dispatchC__I                            
0000f21d  C$$EXIT                                                              
0000f21d  abort                                                                
0000f21d  xdc_runtime_System_abortStd__E                                       
0000f21d  xdc_runtime_System_exitStd__E                                        
0000f221  ti_sysbios_knl_Semaphore_post__E                                     
0000f34d  SBNew                                                                
0000f3b1  CfgGetEntryCnt                                                       
0000f411  FdWaitEvent                                                          
0000f471  NIMUUnregister                                                       
0000f4d1  NodeFind                                                             
0000f531  RTCMsg                                                               
0000f591  TcpChecksum                                                          
0000f5f1  dhcpBuildOptions                                                     
0000f651  ti_ndk_config_Global_serviceReport                                   
0000f6b1  RtRemove                                                             
0000f76d  VLANReceivePacket                                                    
0000f829  CfgSetExecuteOrder                                                   
0000f93d  ti_sysbios_knl_Swi_create                                            
0000f999  ti_sysbios_knl_Swi_run__I                                            
0000f9f5  list_get_head                                                        
0000f9f9  ti_sysbios_knl_Swi_schedule__I                                       
0000fa55  ti_sysbios_knl_Task_create                                           
0000fab1  ti_sysbios_knl_Task_unblockI__E                                      
0000fb0d  xdc_runtime_Text_putLab__E                                           
0000fb69  RtRedirect                                                           
0000fbc3  TcpValidateMetrics                                                   
0000fc1d  dhcpBuildDecline                                                     
0000fc77  mmCopy                                                               
0000fcd1  ti_ndk_config_tcp_init                                               
0000fd2d  BindFree                                                             
0000fd85  _c_int00                                                             
0000fddd  EMACPHYConfigSet                                                     
0000fe35  HOSTwrite                                                            
0000fee5  SemCreate                                                            
0000ff3d  ti_sysbios_family_arm_m3_Hwi_construct                               
0000ff95  ti_sysbios_family_arm_m3_Hwi_initStacks__E                           
0000ffed  GPIOIntTypeSet                                                       
00010099  CfgEntryDeRef                                                        
000100ed  IGMPLeave                                                            
00010141  RawEthSockPcbAttach                                                  
00010195  SockCleanPcb                                                         
000101e9  TcpTimeoutPersist                                                    
0001023d  __TI_ltoa                                                            
000102e5  list_get_next                                                        
000102e9  ti_sysbios_family_arm_lm4_Timer_initDevice__I                        
0001033d  ti_sysbios_BIOS_RtsGateProxy_enter__E                                
00010341  ti_sysbios_knl_Swi_Instance_init__E                                  
00010395  xdc_runtime_Assert_raise__I                                          
000103e9  TcpPrDetach                                                          
0001048d  GPIO_setCallback                                                     
000104dd  GPIO_write                                                           
0001052d  NDK_bind                                                             
0001057d  NDK_connect                                                          
0001061d  SysCtlPeripheralReset                                                
0001066d  UARTTiva_writeCancel                                                 
0001070d  ti_sysbios_BIOS_RtsGateProxy_leave__E                                
00010711  ti_sysbios_family_arm_m3_Hwi_Module_startup__E                       
00010761  xdc_runtime_Startup_exec__E                                          
000107b1  xdc_runtime_Text_visitRope2__I                                       
00010801  NodeDeRef                                                            
0001089d  NtAddNetwork                                                         
000108e9  SockValidateRoute                                                    
00010935  UARTTiva_close                                                       
00010981  atoi                                                                 
000109cd  copy_in                                                              
00010a19  snprintf                                                             
00010a65  ti_sysbios_family_arm_lm4_Timer_masterEnable__I                      
00010a69  ti_sysbios_heaps_HeapMem_getStats__E                                 
00010ab5  ti_sysbios_family_arm_m3_Hwi_delete                                  
00010ab9  ti_sysbios_knl_Swi_runLoop__I                                        
00010b05  ti_sysbios_family_arm_m3_Hwi_destruct                                
00010b09  ti_sysbios_knl_Task_allBlockedFunction__I                            
00010b9f  SockDisconnect                                                       
00010be9  TimerNew                                                             
00010c33  CfgNew                                                               
00010c7d  GPIOPinConfigure                                                     
00010cc5  LLIMsg                                                               
00010d0d  NodeWalk                                                             
00010d55  RawEthSockPcbDetach                                                  
00010d9d  SockPcbResolveChain                                                  
00010de5  TcpDrop                                                              
00010e2d  _LLIExpListInsert                                                    
00010e75  _RtExpListInsert                                                     
00010ebd  fdint_lockfd                                                         
00010f05  __aeabi_d2iz                                                         
00010f4d  ti_sysbios_family_arm_m3_TaskSupport_Module__startupDone__S          
00010f4d  ti_sysbios_knl_Task_SupportProxy_Module__startupDone__S              
00010f51  ti_sysbios_family_arm_lm4_Timer_enableTimers__I                      
00010f99  ti_sysbios_family_arm_m3_Hwi_disableInterrupt__E                     
00010f99  ti_sysbios_hal_Hwi_HwiProxy_disableInterrupt__E                      
00010f99  ti_sysbios_hal_Hwi_disableInterrupt__E                               
00010fe1  ti_sysbios_family_arm_m3_Hwi_enableInterrupt__E                      
00010fe1  ti_sysbios_hal_Hwi_HwiProxy_enableInterrupt__E                       
00010fe1  ti_sysbios_hal_Hwi_enableInterrupt__E                                
00011029  ti_sysbios_family_arm_m3_Hwi_excReserved__I                          
00011071  ti_sysbios_knl_Mailbox_Module_startup__E                             
000110b9  ti_sysbios_knl_Task_deleteTerminatedTasksFunc__I                     
00011101  NtIfIdx2Ip                                                           
00011147  RawEthSockSend                                                       
0001118d  RingBuf_put                                                          
000111d3  TcpPrCtlError                                                        
00011219  mmZeroInit                                                           
0001125f  xdc_runtime_Core_assignParams__I                                     
000112e9  ICMPChecksum                                                         
0001132d  IPReasmFree                                                          
00011371  LLIGetValidTime                                                      
000113b5  RouteMsg                                                             
000113f9  RtWalkEnd                                                            
0001143d  SockPcbDetach                                                        
000114c5  llTimerGetTime                                                       
00011509  ti_sysbios_family_arm_lm4_Timer_isrStub__E                           
0001154d  ti_sysbios_heaps_HeapMem_Module_GateProxy_enter__E                   
00011551  ti_sysbios_family_arm_m3_Hwi_getStackInfo__E                         
00011551  ti_sysbios_hal_Hwi_HwiProxy_getStackInfo__E                          
00011551  ti_sysbios_hal_Hwi_getStackInfo__E                                   
00011595  ti_sysbios_heaps_HeapMem_Module_GateProxy_leave__E                   
00011599  ti_sysbios_knl_Swi_post__E                                           
000115dd  xdc_runtime_Error_setX__E                                            
00011621  xdc_runtime_SysMin_flush__E                                          
00011621  xdc_runtime_System_SupportProxy_flush__E                             
00011621  xdc_runtime_System_flush__E                                          
00011665  xdc_runtime_Text_xprintf__I                                          
000116a9  TcpPrSendOOB                                                         
000116eb  UARTConfigSetExpClk                                                  
0001176f  UARTTiva_writePolling                                                
000117b1  fdCloseSession                                                       
000117f5  LLIValidateRoute                                                     
00011835  PBM_copy                                                             
00011875  RingBuf_get                                                          
000118b5  SockPcbRtChange                                                      
000118f5  TcpPrSend                                                            
00011935  UARTTiva_read                                                        
00011975  __aeabi_uidiv                                                        
00011975  __aeabi_uidivmod                                                     
000119b5  sprintf                                                              
000119f5  ti_sysbios_knl_Clock_TimerProxy_getMaxTicks__E                       
000119f9  ti_sysbios_family_arm_lm4_Timer_Module_startup__E                    
00011a39  ti_sysbios_family_arm_lm4_Timer_startup__E                           
00011a39  ti_sysbios_hal_Timer_TimerProxy_startup__E                           
00011a39  ti_sysbios_hal_Timer_startup__E                                      
00011a39  ti_sysbios_knl_Clock_TimerProxy_startup__E                           
00011a79  ti_sysbios_heaps_HeapMem_Instance_init__E                            
00011ab9  DHCPClose                                                            
00011b37  TaskCreate                                                           
00011b75  TcpPrDisconnect                                                      
00011bf1  fdint_unlockfd                                                       
00011c2f  CfgEntryGetData                                                      
00011c6b  EMACIntDisable                                                       
00011ce5  RtWalkBegin                                                          
00011d21  TcpPrConnect                                                         
00011d5d  TcpSetPersist                                                        
00011dd5  _RtNodeRemove                                                        
00011e11  _llTimerInit                                                         
00011e4d  ti_sysbios_knl_Clock_destruct                                        
00011e51  ti_sysbios_family_arm_m3_Hwi_excSvCall__I                            
00011e8d  ti_sysbios_knl_Queue_destruct                                        
00011e91  ti_sysbios_heaps_HeapMem_init__I                                     
00011ecd  ti_sysbios_knl_Semaphore_delete                                      
00011ed1  ti_sysbios_knl_Clock_Instance_init__E                                
00011f0d  ti_sysbios_knl_Semaphore_destruct                                    
00011f11  ti_sysbios_knl_Swi_restore__E                                        
00011f4d  EMACIntEnable                                                        
00011f89  printError                                                           
00011fc5  EMACConfigGet                                                        
00011ffd  IPReasmTimeout                                                       
00012035  NodeGetRt                                                            
0001206d  SysCtlPeripheralReady                                                
000120a5  TcpClose                                                             
000120dd  TimerHSTick                                                          
00012115  UART_init                                                            
0001214d  __TI_writemsg                                                        
0001217b  C$$IO$$                                                              
00012185  dhcpBuildDiscover                                                    
000121bd  dhcpOptionsClear                                                     
000121f5  fdint_waitevent                                                      
0001222d  ti_sysbios_knl_Swi_delete                                            
00012231  ti_sysbios_family_arm_m3_Hwi_excNoIsr__I                             
00012269  ti_sysbios_knl_Clock_create                                          
000122a1  xdc_runtime_SysMin_putch__E                                          
000122a1  xdc_runtime_System_SupportProxy_putch__E                             
000122d9  xdc_runtime_System_atexit__E                                         
00012311  IPChecksum                                                           
00012347  UARTTiva_readCancel                                                  
0001237d  CfgSetService                                                        
000123b1  EMACConfigSet                                                        
000123e5  EMACIntClear                                                         
00012419  EMACSnow_emacPoll                                                    
0001244d  EMACSnow_isLinkUp                                                    
00012481  EMAC_init                                                            
000124b5  ExecClose                                                            
000124e9  NIMUFindByName                                                       
0001251d  NIMUInit                                                             
00012551  RawEthSockNotify                                                     
00012585  SockPrCtlError                                                       
000125b9  SysCtlPeripheralEnable                                               
000125ed  __TI_readmsg                                                         
00012655  ti_sysbios_knl_Task_delete                                           
00012659  ti_sysbios_family_arm_m3_Hwi_Instance_finalize__E                    
0001268d  xdc_runtime_Error_getMsg__E                                          
00012691  ti_sysbios_family_arm_m3_Hwi_excNmi__I                               
000126c5  xdc_runtime_Error_getSite__E                                         
000126c9  ti_sysbios_hal_Hwi_checkStack                                        
000126fd  ti_sysbios_knl_Clock_construct                                       
00012731  ti_sysbios_knl_Semaphore_create                                      
00012765  xdc_runtime_Core_assignLabel__I                                      
00012799  xdc_runtime_Text_printVisFxn__I                                      
000127cd  CfgGetImmediate                                                      
000127ff  RtDeRef                                                              
00012831  RtSetFailure                                                         
00012863  SBFlush                                                              
00012895  SBSetMax                                                             
000128c7  SockIntAbort                                                         
0001295d  xdc_runtime_System_Module_GateProxy_enter__E                         
00012961  ti_sysbios_hal_Hwi_initStack                                         
00012993  EMACRxDMADescriptorListSet                                           
00012999  ti_sysbios_knl_Event_pendTimeout__I                                  
000129cb  EMACTxDMADescriptorListSet                                           
000129d1  ti_sysbios_knl_Semaphore_pendTimeout__I                              
00012a03  EMACAddrSet                                                          
00012a65  NS_PreBoot                                                           
00012a95  SockBind                                                             
00012ac5  UART_open                                                            
00012b25  dhcpPacketSend                                                       
00012b55  list_remove_node                                                     
00012b85  ti_sysbios_BIOS_atExitFunc__I                                        
00012bb5  xdc_runtime_System_Module_GateProxy_leave__E                         
00012bb9  ti_sysbios_family_arm_lm4_Timer_stop__E                              
00012be9  ti_sysbios_family_arm_m3_TaskSupport_start__E                        
00012be9  ti_sysbios_knl_Task_SupportProxy_start__E                            
00012c19  ti_sysbios_gates_GateHwi_Object__create__S                           
00012c49  ti_sysbios_gates_GateMutex_Object__create__S                         
00012c79  ti_sysbios_gates_GateMutex_enter__E                                  
00012ca9  ti_sysbios_heaps_HeapMem_Object__create__S                           
00012cd9  ti_sysbios_knl_Mailbox_postInit__I                                   
00012d09  ti_sysbios_knl_Semaphore_construct                                   
00012d39  ti_sysbios_knl_Task_processVitalTaskFlag__I                          
00012d69  xdc_runtime_SysMin_abort__E                                          
00012d69  xdc_runtime_System_SupportProxy_abort__E                             
00012d99  xdc_runtime_System_processAtExit__E                                  
00012dc9  SBFree                                                               
00012df7  __aeabi_i2d                                                          
00012e25  EK_TM4C1294XL_initUART                                               
00012e51  EMACIntStatus                                                        
00012e7d  FdSignalEvent                                                        
00012ea9  IGMPTestGroup                                                        
00012ed5  NDK_hookCreate                                                       
00012f2d  NIMUPacketServiceCheck                                               
00012f59  PipeClose                                                            
00012f85  SockPcbAttach                                                        
00012fb1  _LLIExpListRemove                                                    
00012fdd  _LLITimeoutFlush                                                     
00013009  _RtExpListRemove                                                     
00013035  ti_sysbios_knl_Clock_doTick__I                                       
00013061  ti_sysbios_knl_Queue_construct                                       
0001308d  xdc_runtime_System_aprintf_va__F                                     
00013091  ti_sysbios_knl_Task_restore__E                                       
000130bd  xdc_runtime_Text_cordText__E                                         
000130e9  GPIODirModeSet                                                       
00013113  PBMQ_deq                                                             
00013191  xdc_runtime_System_putchar__I                                        
000131bd  BindFindByNet                                                        
000131e5  LLIFree                                                              
0001320d  NC_SystemClose                                                       
00013235  NIMUCreatePacket                                                     
0001325d  NIMUPacketService                                                    
000132fd  VLANInit                                                             
00013325  dhcpPacketReceive                                                    
00013375  xdc_runtime_System_printf_va__F                                      
00013379  ti_sysbios_knl_Clock_addI__E                                         
000133a1  ti_sysbios_knl_Swi_Module_startup__E                                 
000133c9  CfgEntryInfo                                                         
000133ef  EMACPHYRead                                                          
00013415  EMACPHYWrite                                                         
0001343b  RawEthSockClose                                                      
00013461  ti_sysbios_family_arm_m3_Hwi_pendSV__I                               
00013485  ti_sysbios_family_arm_m3_Hwi_return                                  
00013487  xdc_runtime_System_avprintf__E                                       
000134ad  BindFindByHost                                                       
000134d1  BindGetIFByDBCast                                                    
000134f5  EMACSnow_pkt_service                                                 
0001353d  ExecTimer                                                            
00013561  NIMUFindByIndex                                                      
00013585  RTCAddHook                                                           
000135a9  RawEthSockPcbFind                                                    
000135f1  RtSetTimeout                                                         
00013615  SockPcbCleanup                                                       
00013639  TcpTimeoutWait2                                                      
00013681  ti_sysbios_BIOS_errorRaiseHook__I                                    
000136a5  ti_sysbios_BIOS_registerRTSLock__I                                   
000136c9  ti_sysbios_BIOS_removeRTSLock__I                                     
000136ed  ti_sysbios_BIOS_startFunc__I                                         
00013711  ti_sysbios_BIOS_RtsGateProxy_Object__delete__S                       
00013711  ti_sysbios_gates_GateMutex_Object__delete__S                         
00013711  ti_sysbios_heaps_HeapMem_Module_GateProxy_Object__delete__S          
00013739  ti_sysbios_knl_Clock_Module_startup__E                               
00013761  ti_sysbios_knl_Clock_start__E                                        
00013789  ti_sysbios_knl_Semaphore_Instance_init__E                            
000137ad  ti_sysbios_knl_Semaphore_Object__delete__S                           
000137d1  ti_sysbios_knl_Task_restoreHwi__E                                    
000137f5  xdc_runtime_System_vprintf__E                                        
00013819  CfgEntryRef                                                          
00013861  ti_sysbios_family_arm_lm4_Timer_write__I                             
00013883  xdc_runtime_SysMin_output__I                                         
000138a5  NC_BootComplete                                                      
000138e5  RTCRemoveHook                                                        
00013905  TcpTimeoutRemove                                                     
00013945  ti_sysbios_BIOS_rtsLock__I                                           
00013969  ti_sysbios_family_arm_lm4_Timer_postInit__I                          
00013989  ti_sysbios_family_arm_m3_Hwi_Object__delete__S                       
00013989  ti_sysbios_hal_Hwi_HwiProxy_Object__delete__S                        
000139a9  ti_sysbios_family_arm_m3_Hwi_excHandlerAsm__I                        
000139c9  ti_sysbios_family_arm_m3_Hwi_excHandler__I                           
000139e9  ti_sysbios_gates_GateHwi_Object__delete__S                           
000139e9  xdc_runtime_Main_Module_GateProxy_Object__delete__S                  
000139e9  xdc_runtime_System_Module_GateProxy_Object__delete__S                
00013a09  ti_sysbios_heaps_HeapMem_Object__delete__S                           
00013a09  xdc_runtime_Memory_HeapProxy_Object__delete__S                       
00013a29  ti_sysbios_knl_Clock_Object__destruct__S                             
00013a49  ti_sysbios_knl_Idle_run__E                                           
00013a69  ti_sysbios_knl_Semaphore_Object__destruct__S                         
00013a89  ti_sysbios_knl_Swi_Object__delete__S                                 
00013aa9  ti_sysbios_knl_Task_Object__delete__S                                
00013ac9  xdc_runtime_Registry_findById__E                                     
00013ae9  xdc_runtime_SysMin_Module_startup__E                                 
00013b09  list_remove                                                          
00013b63  strcat                                                               
00013b81  ti_sysbios_family_xxx_Hwi_switchAndRunFunc                           
00013ba1  BindFindByIF                                                         
00013bd9  NDK_sprintf                                                          
00013bf5  NIMUAddHeader                                                        
00013c11  SockPrDetach                                                         
00013c2d  TaskDestroy                                                          
00013c49  UARTDisable                                                          
00013c81  memccpy                                                              
00013c9d  ti_ndk_config_global_taskCreateHook                                  
00013cb9  ti_sysbios_family_arm_m3_Hwi_Object__destruct__S                     
00013cd9  ti_sysbios_gates_GateMutex_Instance_init__E                          
00013cf9  ti_sysbios_knl_Clock_Instance_finalize__E                            
00013d15  ti_sysbios_knl_Queue_Object__destruct__S                             
00013d31  ti_sysbios_knl_Queue_get__E                                          
00013d51  ti_sysbios_knl_Queue_put__E                                          
00013d71  ti_sysbios_knl_Task_enter__I                                         
00013d8d  xdc_runtime_Error_raiseX__E                                          
00013da9  xdc_runtime_Memory_valloc__E                                         
00013dc5  xdc_runtime_SysMin_exit__E                                           
00013dc5  xdc_runtime_System_SupportProxy_exit__E                              
00013de1  xdc_runtime_System_abort__E                                          
00013dfd  BindGetIP                                                            
00013e17  SockSetOOBMark                                                       
00013e31  copysign                                                             
00013e31  copysignl                                                            
00013e4b  fdint_getfdt                                                         
00013e65  ti_sysbios_family_arm_m3_Hwi_Handle__label__S                        
00013e65  ti_sysbios_hal_Hwi_HwiProxy_Handle__label__S                         
00013e7f  ti_sysbios_gates_GateHwi_Handle__label__S                            
00013e7f  xdc_runtime_Main_Module_GateProxy_Handle__label__S                   
00013e7f  xdc_runtime_System_Module_GateProxy_Handle__label__S                 
00013e99  ti_sysbios_BIOS_RtsGateProxy_Handle__label__S                        
00013e99  ti_sysbios_gates_GateMutex_Handle__label__S                          
00013e99  ti_sysbios_heaps_HeapMem_Module_GateProxy_Handle__label__S           
00013eb3  ti_sysbios_heaps_HeapMem_Handle__label__S                            
00013eb3  xdc_runtime_Memory_HeapProxy_Handle__label__S                        
00013ecd  ti_sysbios_knl_Swi_Handle__label__S                                  
00013ee7  ti_sysbios_knl_Task_Handle__label__S                                 
00013f01  ti_sysbios_knl_Task_sleepTimeout__I                                  
00013f1b  xdc_runtime_System_aprintf__E                                        
00013f35  xdc_runtime_System_printf__E                                         
00013f51  EMACSnow_emacSend                                                    
00013f69  IPRtChange                                                           
00013f81  RawEthSockPcbCleanup                                                 
00014071  TcpTimeoutAdd                                                        
00014089  UART_Params_init                                                     
000140a1  _args_main                                                           
000140e9  dhcpSocketClose                                                      
00014101  list_add                                                             
00014119  strcmp                                                               
00014131  ti_sysbios_BIOS_rtsUnlock__I                                         
00014149  ti_sysbios_family_arm_lm4_Timer_Module__startupDone__F               
00014149  ti_sysbios_family_arm_lm4_Timer_Module__startupDone__S               
00014149  ti_sysbios_hal_Timer_TimerProxy_Module__startupDone__S               
00014149  ti_sysbios_knl_Clock_TimerProxy_Module__startupDone__S               
00014161  ti_sysbios_family_arm_m3_Hwi_Module__startupDone__F                  
00014161  ti_sysbios_family_arm_m3_Hwi_Module__startupDone__S                  
00014161  ti_sysbios_hal_Hwi_HwiProxy_Module__startupDone__S                   
00014179  ti_sysbios_family_arm_m3_TaskSupport_swap__E                         
00014179  ti_sysbios_knl_Task_SupportProxy_swap__E                             
00014185  ti_sysbios_knl_Task_swapReturn                                       
00014191  ti_sysbios_gates_GateMutex_leave__E                                  
000141a9  ti_sysbios_knl_Task_unblock__E                                       
000141c1  xdc_runtime_Error_check__E                                           
000141d9  xdc_runtime_System_exit__E                                           
000141f1  xdc_runtime_Text_ropeText__E                                         
00014209  EMACReset                                                            
0001421f  EMACRxEnable                                                         
00014235  EMACTxEnable                                                         
0001424b  fdint_freefdt                                                        
00014261  strchr                                                               
00014277  ti_sysbios_BIOS_exitFunc__I                                          
000142a3  xdc_runtime_System_vsprintf__E                                       
000142b9  BindIPHost2IF                                                        
000142cd  FlashUserGet                                                         
000142e1  NC_NetStop                                                           
000142f5  NDK_hookExit                                                         
00014309  NIMUSendPacket                                                       
0001431d  NtRemoveNetwork                                                      
00014331  RawEthSockPcbInit                                                    
00014345  TimerFree                                                            
00014359  UARTEnable                                                           
00014395  strcpy                                                               
000143a9  strlen                                                               
000143bd  ti_ndk_config_global_taskExitHook                                    
000143d1  ti_sysbios_family_arm_m3_Hwi_Object__get__S                          
000143e9  ti_sysbios_family_arm_m3_Hwi_switchFromBootStack__E                  
000143e9  ti_sysbios_hal_Hwi_HwiProxy_switchFromBootStack__E                   
000143e9  ti_sysbios_hal_Hwi_switchFromBootStack__E                            
000143fd  ti_sysbios_heaps_HeapMem_Object__get__S                              
00014411  ti_sysbios_knl_Mailbox_Object__get__S                                
00014425  ti_sysbios_knl_Swi_Object__get__S                                    
00014439  ti_sysbios_knl_Task_Object__first__S                                 
0001444d  ti_sysbios_knl_Task_Object__next__S                                  
00014461  timerHWI                                                             
00014475  GPIOPinTypeEthernetLED                                               
00014487  GPIOPinTypeUART                                                      
00014499  RingBuf_construct                                                    
000144ab  SockPrAttach                                                         
000144bd  SockSetOOBData                                                       
000144d1  ti_sysbios_hal_Hwi_Module_startup__E                                 
000144e3  GPIOIntClear                                                         
000144e9  ti_sysbios_hal_Timer_Module_startup__E                               
000144fb  GPIOPinWrite                                                         
00014501  ti_sysbios_knl_Semaphore_reset__E                                    
00014513  wcslen                                                               
00014525  xdc_runtime_Startup_exec__I                                          
00014539  ti_catalog_arm_cortexm4_tiva_ce_Boot_init__I                         
00014549  BindIF2IPHost                                                        
00014559  BindIFNet2IPHost                                                     
00014569  EMACFrameFilterSet                                                   
00014579  ExecHRef                                                             
00014589  NC_IPUpdate                                                          
00014599  NIMUGetRsvdSizeInfo                                                  
000145b9  ti_sysbios_BIOS_exit__E                                              
000145c9  ti_sysbios_BIOS_getCpuFreq__E                                        
000145d9  ti_sysbios_BIOS_setThreadType__E                                     
000145e9  osi_start                                                            
000145e9  ti_sysbios_BIOS_start__E                                             
000145f9  ti_sysbios_family_arm_m3_TaskSupport_glue                            
00014609  ti_sysbios_gates_GateMutex_Instance_finalize__E                      
00014619  ti_sysbios_knl_Semaphore_Instance_finalize__E                        
00014629  ti_sysbios_knl_Swi_disable__E                                        
00014639  ti_sysbios_knl_Task_Object__get__S                                   
00014649  osi_TaskDisable                                                      
00014649  ti_sysbios_knl_Task_disable__E                                       
00014659  xdc_runtime_Gate_leaveSystem__E                                      
00014669  xdc_runtime_Memory_free__E                                           
00014679  xdc_runtime_SysMin_ready__E                                          
00014679  xdc_runtime_System_SupportProxy_ready__E                             
00014689  xdc_runtime_System_vsnprintf__E                                      
00014699  xdc_runtime_Text_visitRope__I                                        
000146a9  EMACSnow_emacioctl                                                   
000146b7  ExecLowResource                                                      
000146c5  GPIOIntStatus                                                        
000146d3  UARTCharGetNonBlocking                                               
000146e1  UARTCharPutNonBlocking                                               
000146ef  __TI_decompress_none                                                 
00014701  ti_sysbios_knl_Clock_removeI__E                                      
00014711  ti_sysbios_knl_Idle_loop__E                                          
00014721  ti_sysbios_knl_Queue_empty__E                                        
00014731  BindGetFirst                                                         
0001473d  CfgSetDefault                                                        
00014749  EMACSnow_init                                                        
00014755  NDK_hookInit                                                         
00014761  NIMUSetRsvdSizeInfo                                                  
0001476d  NotifyLowResource                                                    
00014779  PBM_close                                                            
00014785  RingBuf_peek                                                         
00014791  SemDelete                                                            
0001479d  UARTFlowControlSet                                                   
000147a9  UARTTiva_init                                                        
000147b5  _llTimerShutdown                                                     
000147c1  _register_lock                                                       
000147cd  _register_unlock                                                     
000147e5  __TI_zero_init                                                       
000147f1  llTimerGetStartTime                                                  
00014801  ti_sysbios_BIOS_getThreadType__E                                     
00014811  ti_sysbios_family_arm_lm4_Timer_getMaxTicks__E                       
0001481d  ti_sysbios_family_arm_m3_Hwi_Params__init__S                         
0001481d  ti_sysbios_hal_Hwi_HwiProxy_Params__init__S                          
00014829  OEMSysCritOn                                                         
00014829  ti_sysbios_family_arm_m3_Hwi_disableFxn__E                           
00014829  ti_sysbios_hal_Hwi_HwiProxy_disable__E                               
00014839  ti_sysbios_family_arm_m3_TaskSupport_checkStack__E                   
00014839  ti_sysbios_knl_Task_SupportProxy_checkStack__E                       
00014849  ti_sysbios_family_arm_m3_TaskSupport_getStackAlignment__E            
00014849  ti_sysbios_knl_Task_SupportProxy_getStackAlignment__E                
00014859  ti_sysbios_gates_GateHwi_enter__E                                    
00014865  ti_sysbios_knl_Clock_Params__init__S                                 
00014871  ti_sysbios_knl_Clock_getTicks__E                                     
0001487d  ti_sysbios_knl_Queue_Object__get__S                                  
00014889  ti_sysbios_knl_Semaphore_Params__init__S                             
00014895  ti_sysbios_knl_Task_Params__init__S                                  
000148a1  ti_sysbios_knl_Task_getIdleTask__E                                   
000148b1  ti_sysbios_knl_Task_self__E                                          
000148bd  xdc_runtime_Error_init__E                                            
000148c9  xdc_runtime_Gate_enterSystem__E                                      
000148d5  xdc_runtime_Memory_calloc__E                                         
000148e1  xdc_runtime_Memory_getMaxDefaultTypeAlign__E                         
000148ed  UARTCharGet                                                          
000148f7  UARTCharPut                                                          
00014901  UARTIntDisable                                                       
0001490b  UARTIntStatus                                                        
00014915  UART_read                                                            
00014929  fdint_signalevent                                                    
00014933  fdint_signaltimeout                                                  
0001493d  xdc_runtime_Memory_HeapProxy_alloc__E                                
00014947  xdc_runtime_Memory_HeapProxy_free__E                                 
00014951  EK_TM4C1294XL_initGPIO                                               
00014959  EMACTxDMAPollDemand                                                  
00014969  TaskBlock                                                            
00014971  UARTIntEnable                                                        
00014979  UARTRxErrorGet                                                       
00014981  __aeabi_errno_addr                                                   
00014991  ti_sysbios_family_arm_lm4_Timer_masterDisable__I                     
00014999  ti_sysbios_family_arm_m3_Hwi_doSwiRestore__I                         
000149a1  ti_sysbios_family_arm_m3_Hwi_startup__E                              
000149a1  ti_sysbios_hal_Hwi_HwiProxy_startup__E                               
000149a1  ti_sysbios_hal_Hwi_startup__E                                        
000149a9  ti_sysbios_knl_Task_getHookContext__E                                
000149b1  ti_sysbios_knl_Task_setHookContext__E                                
000149c1  SysCtlDelay                                                          
000149c7  TcpPrRecv                                                            
000149cd  UARTFIFOLevelSet                                                     
000149d3  UARTRxErrorClear                                                     
000149d9  __xdc__init                                                          
000149e1  ti_sysbios_family_arm_m3_Hwi_doTaskRestore__I                        
000149e9  OEMSysCritOff                                                        
000149e9  ti_sysbios_family_arm_m3_Hwi_restoreFxn__E                           
000149e9  ti_sysbios_hal_Hwi_HwiProxy_restore__E                               
000149f1  ti_sysbios_gates_GateHwi_leave__E                                    
000149f9  ti_sysbios_heaps_HeapMem_isBlocking__E                               
00014a01  ti_sysbios_knl_Clock_stop__E                                         
00014a09  ti_sysbios_knl_Queue_Instance_init__E                                
00014a11  ti_sysbios_knl_Swi_startup__E                                        
00014a17  xdc_runtime_System_Module_startup__E                                 
00014a21  ti_sysbios_gates_GateHwi_query__E                                    
00014a21  xdc_runtime_Main_Module_GateProxy_query__E                           
00014a21  xdc_runtime_System_Module_GateProxy_query__E                         
00014a29  ti_sysbios_BIOS_RtsGateProxy_query__E                                
00014a29  ti_sysbios_gates_GateMutex_query__E                                  
00014a29  ti_sysbios_heaps_HeapMem_Module_GateProxy_query__E                   
00014a31  ti_sysbios_knl_Task_startup__E                                       
00014a39  ti_sysbios_gates_GateHwi_Instance_init__E                            
00014a41  ti_sysbios_knl_Clock_logTick__E                                      
00014a49  ti_sysbios_knl_Swi_Instance_finalize__E                              
00014a4c  xdc_runtime_Text_charTab__A                                          
000163be  ti_catalog_arm_cortexm4_tiva_ce_Boot_Module__id__C                   
000164e0  _ctypes_                                                             
000165e2  xdc_runtime_Text_nodeTab__A                                          
000166be  ti_sysbios_family_arm_m3_Hwi_Module__id__C                           
0001683a  ti_sysbios_hal_Hwi_Module__id__C                                     
000169ec  Code2Err                                                             
00016b5e  ti_sysbios_heaps_HeapMem_Module__id__C                               
00016b60  ti_ndk_config_Global_rawPageSize                                     
00016b64  ti_ndk_config_Global_rawPageCount                                    
00016b68  ti_ndk_config_Global_smallest                                        
00016b6c  ti_ndk_config_Global_largest                                         
00016b70  ti_ndk_config_Global_numFrameBuf                                     
00016b74  ti_ndk_config_Global_sizeFrameBuf                                    
00016b78  semaphore0                                                           
00016b7c  timer0                                                               
00016b80  swi0                                                                 
00016b84  semaphore1                                                           
00016b88  semaphore2                                                           
00016b8c  mailbox0                                                             
00016b90  mailbox1                                                             
00016b94  event0                                                               
00016b98  event1                                                               
00016b9c  ti_sysbios_knl_Task_Object__PARAMS__C                                
00016c08  ti_sysbios_family_arm_m3_Hwi_Object__PARAMS__C                       
00016c38  UARTTiva_fxnTable                                                    
00016c60  ti_sysbios_heaps_HeapMem_Module__FXNS__C                             
00016c88  ti_sysbios_knl_Swi_Object__PARAMS__C                                 
00016cb0  xdc_runtime_Startup_sfxnTab__A                                       
00016cd8  UART_defaultParams                                                   
00016cfc  ti_sysbios_gates_GateHwi_Module__FXNS__C                             
00016d20  ti_sysbios_gates_GateMutex_Module__FXNS__C                           
00016d44  ti_sysbios_heaps_HeapMem_Object__PARAMS__C                           
00016d68  ti_sysbios_knl_Clock_Object__PARAMS__C                               
00016d8c  ti_sysbios_knl_Semaphore_Object__PARAMS__C                           
00016db0  ti_sysbios_family_arm_m3_Hwi_Object__DESC__C                         
00016dd0  ti_sysbios_gates_GateHwi_Object__DESC__C                             
00016df0  ti_sysbios_gates_GateMutex_Object__DESC__C                           
00016e10  ti_sysbios_heaps_HeapMem_Object__DESC__C                             
00016e30  ti_sysbios_knl_Clock_Object__DESC__C                                 
00016e50  ti_sysbios_knl_Queue_Object__DESC__C                                 
00016e70  ti_sysbios_knl_Semaphore_Object__DESC__C                             
00016e90  ti_sysbios_knl_Swi_Object__DESC__C                                   
00016eb0  ti_sysbios_knl_Task_Object__DESC__C                                  
00016ed0  EMAC_config                                                          
00016ee8  UART_config                                                          
00016f18  ti_sysbios_gates_GateHwi_Object__PARAMS__C                           
00016f30  ti_sysbios_gates_GateMutex_Object__PARAMS__C                         
00016f48  ti_sysbios_knl_Queue_Object__PARAMS__C                               
00016f60  ti_sysbios_knl_Task_hooks__A                                         
00016f78  uartTivaHWAttrs                                                      
00016f90  GPIOTiva_config                                                      
00016fa4  xdc_runtime_Startup_firstFxns__A                                     
00016fb8  xdc_runtime_Startup_sfxnRts__A                                       
00016fcc  emacHWAttrs                                                          
00016fe4  EMACSnow_fxnTable                                                    
00016fec  ti_sysbios_family_arm_m3_Hwi_excHookFuncs__A                         
00016ff4  ti_sysbios_knl_Idle_funcList__A                                      
00016ffc  ti_sysbios_knl_Idle_funcList__C                                      
00017004  ti_sysbios_knl_Task_hooks__C                                         
0001700c  xdc_runtime_Startup_firstFxns__C                                     
00017014  xdc_runtime_Startup_lastFxns__C                                      
0001701c  ti_catalog_arm_cortexm4_tiva_ce_Boot_A_mustNotUseEnhancedClockMode__C
00017020  ti_catalog_arm_cortexm4_tiva_ce_Boot_Module__diagsEnabled__C         
00017024  ti_catalog_arm_cortexm4_tiva_ce_Boot_Module__diagsIncluded__C        
00017028  ti_catalog_arm_cortexm4_tiva_ce_Boot_Module__diagsMask__C            
0001702c  ti_sysbios_family_arm_lm4_Timer_enableFunc__C                        
00017030  ti_sysbios_family_arm_lm4_Timer_numTimerDevices__C                   
00017034  ti_sysbios_family_arm_lm4_Timer_startupNeeded__C                     
00017038  ti_sysbios_family_arm_m3_Hwi_E_NMI__C                                
0001703c  ti_sysbios_family_arm_m3_Hwi_E_alreadyDefined__C                     
00017040  ti_sysbios_family_arm_m3_Hwi_E_busFault__C                           
00017044  ti_sysbios_family_arm_m3_Hwi_E_debugMon__C                           
00017048  ti_sysbios_family_arm_m3_Hwi_E_hardFault__C                          
0001704c  ti_sysbios_family_arm_m3_Hwi_E_memFault__C                           
00017050  ti_sysbios_family_arm_m3_Hwi_E_noIsr__C                              
00017054  ti_sysbios_family_arm_m3_Hwi_E_reserved__C                           
00017058  ti_sysbios_family_arm_m3_Hwi_E_svCall__C                             
0001705c  ti_sysbios_family_arm_m3_Hwi_E_usageFault__C                         
00017060  ti_sysbios_family_arm_m3_Hwi_NUM_INTERRUPTS__C                       
00017064  ti_sysbios_family_arm_m3_Hwi_Object__count__C                        
00017068  ti_sysbios_family_arm_m3_Hwi_ccr__C                                  
0001706c  ti_sysbios_family_arm_m3_Hwi_excHandlerFunc__C                       
00017070  ti_sysbios_family_arm_m3_Hwi_excHookFuncs__C                         
00017074  ti_sysbios_family_arm_m3_Hwi_nullIsrFunc__C                          
00017078  ti_sysbios_family_arm_m3_Hwi_priGroup__C                             
0001707c  ti_sysbios_family_arm_m3_TaskSupport_stackAlignment__C               
00017080  ti_sysbios_gates_GateMutex_Instance_State_sem__O                     
00017084  ti_sysbios_hal_Hwi_E_stackOverflow__C                                
00017088  ti_sysbios_heaps_HeapMem_E_memory__C                                 
0001708c  ti_sysbios_heaps_HeapMem_Module__gateObj__C                          
00017090  ti_sysbios_heaps_HeapMem_Object__count__C                            
00017094  ti_sysbios_heaps_HeapMem_reqAlign__C                                 
00017098  ti_sysbios_knl_Clock_Module_State_clockQ__O                          
0001709c  ti_sysbios_knl_Event_Instance_State_pendQ__O                         
000170a0  ti_sysbios_knl_Mailbox_Instance_State_dataQue__O                     
000170a4  ti_sysbios_knl_Mailbox_Instance_State_dataSem__O                     
000170a8  ti_sysbios_knl_Mailbox_Instance_State_freeQue__O                     
000170ac  ti_sysbios_knl_Mailbox_Instance_State_freeSem__O                     
000170b0  ti_sysbios_knl_Mailbox_Object__count__C                              
000170b4  ti_sysbios_knl_Mailbox_maxTypeAlign__C                               
000170b8  ti_sysbios_knl_Semaphore_Instance_State_pendQ__O                     
000170bc  ti_sysbios_knl_Swi_Object__count__C                                  
000170c0  ti_sysbios_knl_Task_E_deleteNotAllowed__C                            
000170c4  ti_sysbios_knl_Task_E_spOutOfBounds__C                               
000170c8  ti_sysbios_knl_Task_E_stackOverflow__C                               
000170cc  ti_sysbios_knl_Task_Module_State_inactiveQ__O                        
000170d0  ti_sysbios_knl_Task_Module_State_terminatedQ__O                      
000170d4  ti_sysbios_knl_Task_Object__count__C                                 
000170d8  ti_sysbios_knl_Task_Object__heap__C                                  
000170dc  ti_sysbios_knl_Task_allBlockedFunc__C                                
000170e0  ti_sysbios_knl_Task_defaultStackHeap__C                              
000170e4  ti_sysbios_knl_Task_defaultStackSize__C                              
000170e8  ti_sysbios_knl_Task_numConstructedTasks__C                           
000170ec  xdc_runtime_Assert_E_assertFailed__C                                 
000170f0  xdc_runtime_Core_A_initializedParams__C                              
000170f4  xdc_runtime_Core_Module__diagsEnabled__C                             
000170f8  xdc_runtime_Core_Module__diagsIncluded__C                            
000170fc  xdc_runtime_Core_Module__diagsMask__C                                
00017100  xdc_runtime_Error_E_memory__C                                        
00017104  xdc_runtime_Error_Module__diagsEnabled__C                            
00017108  xdc_runtime_Error_Module__diagsIncluded__C                           
0001710c  xdc_runtime_Error_Module__diagsMask__C                               
00017110  xdc_runtime_Error_Module__loggerFxn8__C                              
00017114  xdc_runtime_Error_Module__loggerObj__C                               
00017118  xdc_runtime_Error_policyFxn__C                                       
0001711c  xdc_runtime_Error_raiseHook__C                                       
00017120  xdc_runtime_IGateProvider_Interface__BASE__C                         
00017124  xdc_runtime_IHeap_Interface__BASE__C                                 
00017128  xdc_runtime_IModule_Interface__BASE__C                               
0001712c  xdc_runtime_Log_L_error__C                                           
00017130  xdc_runtime_Memory_defaultHeapInstance__C                            
00017134  xdc_runtime_Startup_execImpl__C                                      
00017138  xdc_runtime_Startup_maxPasses__C                                     
0001713c  xdc_runtime_Startup_sfxnRts__C                                       
00017140  xdc_runtime_Startup_sfxnTab__C                                       
00017144  xdc_runtime_SysMin_bufSize__C                                        
00017148  xdc_runtime_SysMin_outputFunc__C                                     
0001714c  xdc_runtime_System_Module__gateObj__C                                
00017150  xdc_runtime_System_abortFxn__C                                       
00017154  xdc_runtime_System_exitFxn__C                                        
00017158  xdc_runtime_System_extendFxn__C                                      
0001715c  xdc_runtime_System_maxAtexitHandlers__C                              
00017160  xdc_runtime_Text_charTab__C                                          
00017164  xdc_runtime_Text_nameEmpty__C                                        
00017168  xdc_runtime_Text_nameStatic__C                                       
0001716c  xdc_runtime_Text_nameUnknown__C                                      
00017170  xdc_runtime_Text_nodeTab__C                                          
00017174  xdc_runtime_Text_visitRopeFxn__C                                     
00017178  ti_sysbios_knl_Task_Module__id__C                                    
0001717a  xdc_runtime_Core_Module__id__C                                       
0001717c  xdc_runtime_Error_Module__loggerDefined__C                           
0001717e  xdc_runtime_Error_maxDepth__C                                        
00017180  xdc_runtime_Memory_Module__id__C                                     
00017182  xdc_runtime_SysMin_flushAtExit__C                                    
00017184  xdc_runtime_Text_charCnt__C                                          
00017186  xdc_runtime_Text_isLoaded__C                                         
00017188  xdc_runtime_Text_registryModsLastId__C                               
0001718a  xdc_runtime_Text_unnamedModsLastId__C                                
0001718c  xdc_runtime_Error_policy__C                                          
00017190  __TI_static_base__                                                   
000175c4  __TI_Handler_Table_Base                                              
000175d0  __TI_Handler_Table_Limit                                             
000175e0  __TI_CINIT_Base                                                      
000175f8  __TI_CINIT_Limit                                                     
20000000  __start___llvm_prf_cnts                                              
20000000  __stop___llvm_prf_cnts                                               
20000000  ti_sysbios_family_arm_m3_Hwi_ramVectors                              
20000380  ti_ndk_config_Global_pit                                             
20000498  ti_ndk_config_Global_pitBuffer                                       
2000cc98  ti_sysbios_heaps_HeapMem_Instance_State_0_buf__A                     
20014c98  ips                                                                  
20014d00  ti_ndk_config_Global_pBufMem                                         
20018900  ti_ndk_config_Global_pHdrMem                                         
20018bf8  ti_sysbios_knl_Task_Instance_State_0_stack__A                        
200191f8  ti_sysbios_knl_Task_Instance_State_1_stack__A                        
200193f8  ti_sysbios_family_arm_m3_Hwi_dispatchTable                           
20019758  __CIOBUF_                                                            
20019978  uartTivaObjects                                                      
20019a44  tcps                                                                 
20019d60  xdc_runtime_SysMin_Module_State_0_outbuf__A                          
20019de0  ti_sysbios_knl_Mailbox_Instance_State_0_allocBuf__A                  
20019e50  ti_sysbios_knl_Mailbox_Instance_State_1_allocBuf__A                  
20019ec0  nimu_mcb                                                             
20019f24  dummy                                                                
20019f88  input                                                                
20019fec  _ICMPIn                                                              
2001a038  _ICMPOut                                                             
2001a0c4  vlan_mcb                                                             
2001a110  udps                                                                 
2001a134  uartTivaRingBuffer                                                   
2001a154  BlockCount                                                           
2001a170  BlockMax                                                             
2001a18c  PageCount                                                            
2001a1a8  PageMax                                                              
2001a1c4  stkEvent                                                             
2001a200  raweths                                                              
2001a210  raws                                                                 
2001a22c  PBMQ_free                                                            
2001a238  tpseudo                                                              
2001a244  upseudo                                                              
2001a250  emacObjects                                                          
2001a258  parmbuf                                                              
2001a284  _IGMPInDiscard                                                       
2001a288  _IGMPInQuery                                                         
2001a28c  _IGMPInQueryGroup                                                    
2001a290  _IGMPInResponse                                                      
2001a294  _IGMPOutResponse                                                     
2001a298  allSeconds                                                           
2001a29c  day                                                                  
2001a2a0  g_ulStatus                                                           
2001a2b4  hour                                                                 
2001a2b8  minute                                                               
2001a2bc  month                                                                
2001a2c0  raweth_pcb                                                           
2001a2c4  receivedSecond                                                       
2001a2c8  second                                                               
2001a2cc  ti_sysbios_knl_Task_Instance_State_0_hookEnv__A                      
2001a2d0  ti_sysbios_knl_Task_Instance_State_1_hookEnv__A                      
2001a2d4  ts                                                                   
2001a2d8  year                                                                 
2001a2dc  _ipcfg                                                               
2001a390  ti_sysbios_knl_Mailbox_Object__table__V                              
2001a430  ti_sysbios_knl_Task_Object__table__V                                 
2001a4c8  ti_sysbios_family_arm_lm4_Timer_Object__table__V                     
2001a548  ti_sysbios_knl_Swi_Module_State_0_readyQ__A                          
2001a5c8  ti_sysbios_knl_Task_Module_State_0_readyQ__A                         
2001a648  ti_sysbios_knl_Swi_Object__table__V                                  
2001a6f5  printTime                                                            
2001a6f6  ti_sysbios_family_arm_m3_Hwi_Module_State_0_excActive__A             
2001a6f8  ti_sysbios_knl_Task_Module__state__V                                 
2001a7bc  ti_sysbios_family_arm_lm4_Timer_Module_State_0_device__A             
2001a7fc  ti_sysbios_knl_Semaphore_Object__table__V                            
2001a838  ti_sysbios_gates_GateMutex_Object__table__V                          
2001a8a4  ti_sysbios_family_arm_m3_Hwi_Module__state__V                        
2001a8d8  enablePrefetch                                                       
2001a8dc  phyCounter                                                           
2001a90a  xdc_runtime_Error_Module__state__V                                   
2001a93c  ti_sysbios_family_arm_m3_Hwi_Object__table__V                        
2001a96c  ti_sysbios_knl_Clock_Module__state__V                                
2001a998  pstrMsgName                                                          
2001a9c0  _oscfg                                                               
2001aa08  PITCount                                                             
2001aa0c  PITUsed                                                              
2001aa10  PITHigh                                                              
2001aa2c  ti_sysbios_BIOS_Module__state__V                                     
2001aa50  ti_sysbios_family_arm_lm4_Timer_Module_State_0_handles__A            
2001aa8c  ti_ndk_config_Global_Id2Size                                         
2001aaa8  ti_sysbios_knl_Swi_Module__state__V                                  
2001ab0c  ti_sysbios_heaps_HeapMem_Object__table__V                            
2001ab24  ti_sysbios_knl_Event_Object__table__V                                
2001ab78  _tz                                                                  
2001ab88  gpioPinConfigs                                                       
2001aba0  _IGMPForceVersion1                                                   
2001aba8  ti_sysbios_family_arm_lm4_Timer_Module__state__V                     
2001abb4  xdc_runtime_SysMin_Module__state__V                                  
2001abcc  _lock                                                                
2001abd0  _unlock                                                              
2001abd4  NIMUDeviceTable                                                      
2001abdc  ti_ndk_config_Global_HostName                                        
2001abe0  __xdc__init__addr                                                    
2001abe4  gpioCallbackFunctions                                                
2001abfc  _ICMPInErrors                                                        
2001ac00  _ICMPOutErrors                                                       
2001ac04  _IPExecuting                                                         
2001ac1c  tcp_iss                                                              
2001ac20  ptTimeFirst                                                          
2001ac2c  ti_sysbios_family_arm_m3_Hwi_Module__root__V                         
2001ac34  ti_sysbios_gates_GateHwi_Module__root__V                             
2001ac3c  ti_sysbios_gates_GateMutex_Module__root__V                           
2001ac44  ti_sysbios_hal_Timer_Object__table__V                                
2001ac4c  ti_sysbios_heaps_HeapMem_Module__root__V                             
2001ac54  ti_sysbios_knl_Clock_Module__root__V                                 
2001ac5c  ti_sysbios_knl_Queue_Module__root__V                                 
2001ac64  ti_sysbios_knl_Semaphore_Module__root__V                             
2001ac6c  ti_sysbios_knl_Swi_Module__root__V                                   
2001ac74  ti_sysbios_knl_Task_Module__root__V                                  
2001ac7c  xdc_runtime_Registry_Module__state__V                                
2001ac84  xdc_runtime_Startup_Module__state__V                                 
2001ac8c  xdc_runtime_System_Module_State_0_atexitHandlers__A                  
2001ac94  xdc_runtime_System_Module__state__V                                  
2001ac9c  macAddress                                                           
2001acc0  errno                                                                
2001acc4  main_func_sp                                                         
2001accc  _IPReasmPtr                                                          
2001acdc  ti_sysbios_family_arm_m3_Hwi_Module_State_0_excContext__A            
2001ace0  ti_sysbios_family_arm_m3_Hwi_Module_State_0_excStack__A              
2001ace4  ti_sysbios_gates_GateHwi_Object__table__V                            
2001ace8  ti_sysbios_knl_Task_Module_State_0_idleTask__A                       
2001acec  xdc_runtime_Memory_Module__state__V                                  
2001acf0  __stack                                                              
2001b4f0  __STACK_END                                                          
e000e000  ti_sysbios_family_arm_m3_Hwi_nvic                                    
ffffffff  __TI_pprof_out_hndl                                                  
ffffffff  __TI_prof_data_size                                                  
ffffffff  __TI_prof_data_start                                                 
ffffffff  __binit__                                                            
ffffffff  __c_args__                                                           
ffffffff  binit                                                                
UNDEFED   SHT$$INIT_ARRAY$$Base                                                
UNDEFED   SHT$$INIT_ARRAY$$Limit                                               

[1114 symbols]
